---
triple:          'x86_64-apple-darwin'
binary-path:     '/Users/kae/Projects/vscode/custom-scripting-language-compiler/main'
relocations:
  - { offsetInCU: 0x26, offset: 0x26, size: 0x8, addend: 0x0, symName: _main, symObjAddr: 0x0, symBinAddr: 0x100000AB0, symSize: 0x1C0 }
  - { offsetInCU: 0x9FD3, offset: 0x9FD3, size: 0x8, addend: 0x0, symName: _main, symObjAddr: 0x0, symBinAddr: 0x100000AB0, symSize: 0x1C0 }
  - { offsetInCU: 0x3132, offset: 0xD57E, size: 0x8, addend: 0x0, symName: __ZNSt3__118__debug_db_erase_cB7v160006INS_6vectorI4TreeNS_9allocatorIS2_EEEEEEvPT_, symObjAddr: 0x520, symBinAddr: 0x100001190, symSize: 0x10 }
  - { offsetInCU: 0x3163, offset: 0xD5AF, size: 0x8, addend: 0x0, symName: __ZNSt3__112__to_addressB7v160006I4TreeEEPT_S3_, symObjAddr: 0x630, symBinAddr: 0x1000012A0, symSize: 0x10 }
  - { offsetInCU: 0x3198, offset: 0xD5E4, size: 0x8, addend: 0x0, symName: __ZNSt3__130__libcpp_is_constant_evaluatedB7v160006Ev, symObjAddr: 0x790, symBinAddr: 0x100001400, symSize: 0x10 }
  - { offsetInCU: 0x31B5, offset: 0xD601, size: 0x8, addend: 0x0, symName: __ZNSt3__119__libcpp_deallocateB7v160006EPvmm, symObjAddr: 0x7A0, symBinAddr: 0x100001410, symSize: 0x30 }
  - { offsetInCU: 0x31FD, offset: 0xD649, size: 0x8, addend: 0x0, symName: __ZNSt3__127__do_deallocate_handle_sizeB7v160006IJEEEvPvmDpT_, symObjAddr: 0x7D0, symBinAddr: 0x100001440, symSize: 0x20 }
  - { offsetInCU: 0x323B, offset: 0xD687, size: 0x8, addend: 0x0, symName: __ZNSt3__124__libcpp_operator_deleteB7v160006IJPvEEEvDpT_, symObjAddr: 0x7F0, symBinAddr: 0x100001460, symSize: 0x20 }
  - { offsetInCU: 0x5385, offset: 0xF7D1, size: 0x8, addend: 0x0, symName: __ZN4TreeaSERKS_, symObjAddr: 0x0, symBinAddr: 0x100000C80, symSize: 0x50 }
  - { offsetInCU: 0x53B9, offset: 0xF805, size: 0x8, addend: 0x0, symName: __ZN4TreeptEv, symObjAddr: 0x50, symBinAddr: 0x100000CD0, symSize: 0x20 }
  - { offsetInCU: 0x53DF, offset: 0xF82B, size: 0x8, addend: 0x0, symName: __ZN4TreecvbEv, symObjAddr: 0x70, symBinAddr: 0x100000CF0, symSize: 0x20 }
  - { offsetInCU: 0x5405, offset: 0xF851, size: 0x8, addend: 0x0, symName: __ZN4Tree5clearEv, symObjAddr: 0x90, symBinAddr: 0x100000D10, symSize: 0xB0 }
  - { offsetInCU: 0x542B, offset: 0xF877, size: 0x8, addend: 0x0, symName: __ZN4Tree4NodeD1Ev, symObjAddr: 0x140, symBinAddr: 0x100000DC0, symSize: 0x20 }
  - { offsetInCU: 0x5455, offset: 0xF8A1, size: 0x8, addend: 0x0, symName: __ZN4TreeC2ERKS_, symObjAddr: 0x160, symBinAddr: 0x100000DE0, symSize: 0x40 }
  - { offsetInCU: 0x548D, offset: 0xF8D9, size: 0x8, addend: 0x0, symName: __ZN4TreeC1ERKS_, symObjAddr: 0x1A0, symBinAddr: 0x100000E20, symSize: 0x30 }
  - { offsetInCU: 0x54C5, offset: 0xF911, size: 0x8, addend: 0x0, symName: __ZN4TreeC2EPNS_4NodeE, symObjAddr: 0x1D0, symBinAddr: 0x100000E50, symSize: 0x40 }
  - { offsetInCU: 0x54FD, offset: 0xF949, size: 0x8, addend: 0x0, symName: __ZN4TreeC1EPNS_4NodeE, symObjAddr: 0x210, symBinAddr: 0x100000E90, symSize: 0x30 }
  - { offsetInCU: 0x5535, offset: 0xF981, size: 0x8, addend: 0x0, symName: __ZN4TreeD2Ev, symObjAddr: 0x240, symBinAddr: 0x100000EC0, symSize: 0x20 }
  - { offsetInCU: 0x555F, offset: 0xF9AB, size: 0x8, addend: 0x0, symName: __ZN4TreeD1Ev, symObjAddr: 0x260, symBinAddr: 0x100000EE0, symSize: 0x20 }
  - { offsetInCU: 0x5589, offset: 0xF9D5, size: 0x8, addend: 0x0, symName: __ZN4TreeC2Ev, symObjAddr: 0x280, symBinAddr: 0x100000F00, symSize: 0x20 }
  - { offsetInCU: 0x55B3, offset: 0xF9FF, size: 0x8, addend: 0x0, symName: __ZN4TreeC1Ev, symObjAddr: 0x2A0, symBinAddr: 0x100000F20, symSize: 0x20 }
  - { offsetInCU: 0x55DD, offset: 0xFA29, size: 0x8, addend: 0x0, symName: __ZN4Tree4NodeD2Ev, symObjAddr: 0x2C0, symBinAddr: 0x100000F40, symSize: 0x70 }
  - { offsetInCU: 0x5607, offset: 0xFA53, size: 0x8, addend: 0x0, symName: __ZNSt3__16vectorI4TreeNS_9allocatorIS1_EEED1B7v160006Ev, symObjAddr: 0x330, symBinAddr: 0x100000FB0, symSize: 0x20 }
  - { offsetInCU: 0x562F, offset: 0xFA7B, size: 0x8, addend: 0x0, symName: __ZNSt3__16vectorI4TreeNS_9allocatorIS1_EEED2B7v160006Ev, symObjAddr: 0x360, symBinAddr: 0x100000FD0, symSize: 0x30 }
  - { offsetInCU: 0x5657, offset: 0xFAA3, size: 0x8, addend: 0x0, symName: __ZNSt3__16vectorI4TreeNS_9allocatorIS1_EEE16__destroy_vectorC1ERS4_, symObjAddr: 0x390, symBinAddr: 0x100001000, symSize: 0x30 }
  - { offsetInCU: 0x568E, offset: 0xFADA, size: 0x8, addend: 0x0, symName: __ZNSt3__16vectorI4TreeNS_9allocatorIS1_EEE16__destroy_vectorclB7v160006Ev, symObjAddr: 0x3C0, symBinAddr: 0x100001030, symSize: 0x90 }
  - { offsetInCU: 0x56B2, offset: 0xFAFE, size: 0x8, addend: 0x0, symName: __ZNSt3__16vectorI4TreeNS_9allocatorIS1_EEE16__destroy_vectorC2ERS4_, symObjAddr: 0x450, symBinAddr: 0x1000010C0, symSize: 0x20 }
  - { offsetInCU: 0x56E9, offset: 0xFB35, size: 0x8, addend: 0x0, symName: __ZNKSt3__16vectorI4TreeNS_9allocatorIS1_EEE17__annotate_deleteB7v160006Ev, symObjAddr: 0x470, symBinAddr: 0x1000010E0, symSize: 0xB0 }
  - { offsetInCU: 0x570D, offset: 0xFB59, size: 0x8, addend: 0x0, symName: __ZNSt3__16vectorI4TreeNS_9allocatorIS1_EEE7__clearB7v160006Ev, symObjAddr: 0x530, symBinAddr: 0x1000011A0, symSize: 0x20 }
  - { offsetInCU: 0x5731, offset: 0xFB7D, size: 0x8, addend: 0x0, symName: __ZNSt3__116allocator_traitsINS_9allocatorI4TreeEEE10deallocateB7v160006ERS3_PS2_m, symObjAddr: 0x550, symBinAddr: 0x1000011C0, symSize: 0x30 }
  - { offsetInCU: 0x5772, offset: 0xFBBE, size: 0x8, addend: 0x0, symName: __ZNSt3__16vectorI4TreeNS_9allocatorIS1_EEE7__allocB7v160006Ev, symObjAddr: 0x580, symBinAddr: 0x1000011F0, symSize: 0x20 }
  - { offsetInCU: 0x5796, offset: 0xFBE2, size: 0x8, addend: 0x0, symName: __ZNKSt3__16vectorI4TreeNS_9allocatorIS1_EEE8capacityB7v160006Ev, symObjAddr: 0x5A0, symBinAddr: 0x100001210, symSize: 0x30 }
  - { offsetInCU: 0x57BA, offset: 0xFC06, size: 0x8, addend: 0x0, symName: __ZNKSt3__16vectorI4TreeNS_9allocatorIS1_EEE31__annotate_contiguous_containerB7v160006EPKvS6_S6_S6_, symObjAddr: 0x5D0, symBinAddr: 0x100001240, symSize: 0x20 }
  - { offsetInCU: 0x580A, offset: 0xFC56, size: 0x8, addend: 0x0, symName: __ZNKSt3__16vectorI4TreeNS_9allocatorIS1_EEE4dataB7v160006Ev, symObjAddr: 0x5F0, symBinAddr: 0x100001260, symSize: 0x20 }
  - { offsetInCU: 0x582E, offset: 0xFC7A, size: 0x8, addend: 0x0, symName: __ZNKSt3__16vectorI4TreeNS_9allocatorIS1_EEE4sizeB7v160006Ev, symObjAddr: 0x610, symBinAddr: 0x100001280, symSize: 0x20 }
  - { offsetInCU: 0x5852, offset: 0xFC9E, size: 0x8, addend: 0x0, symName: __ZNSt3__16vectorI4TreeNS_9allocatorIS1_EEE22__base_destruct_at_endB7v160006EPS1_, symObjAddr: 0x640, symBinAddr: 0x1000012B0, symSize: 0x90 }
  - { offsetInCU: 0x5894, offset: 0xFCE0, size: 0x8, addend: 0x0, symName: __ZNSt3__116allocator_traitsINS_9allocatorI4TreeEEE7destroyB7v160006IS2_vEEvRS3_PT_, symObjAddr: 0x6D0, symBinAddr: 0x100001340, symSize: 0x30 }
  - { offsetInCU: 0x58D0, offset: 0xFD1C, size: 0x8, addend: 0x0, symName: __ZNSt3__19allocatorI4TreeE7destroyB7v160006EPS1_, symObjAddr: 0x700, symBinAddr: 0x100001370, symSize: 0x20 }
  - { offsetInCU: 0x5902, offset: 0xFD4E, size: 0x8, addend: 0x0, symName: __ZNSt3__19allocatorI4TreeE10deallocateB7v160006EPS1_m, symObjAddr: 0x720, symBinAddr: 0x100001390, symSize: 0x70 }
  - { offsetInCU: 0x5942, offset: 0xFD8E, size: 0x8, addend: 0x0, symName: __ZNSt3__117__compressed_pairIP4TreeNS_9allocatorIS1_EEE6secondB7v160006Ev, symObjAddr: 0x810, symBinAddr: 0x100001480, symSize: 0x20 }
  - { offsetInCU: 0x5966, offset: 0xFDB2, size: 0x8, addend: 0x0, symName: __ZNSt3__122__compressed_pair_elemINS_9allocatorI4TreeEELi1ELb1EE5__getB7v160006Ev, symObjAddr: 0x830, symBinAddr: 0x1000014A0, symSize: 0x10 }
  - { offsetInCU: 0x598A, offset: 0xFDD6, size: 0x8, addend: 0x0, symName: __ZNKSt3__16vectorI4TreeNS_9allocatorIS1_EEE9__end_capB7v160006Ev, symObjAddr: 0x840, symBinAddr: 0x1000014B0, symSize: 0x20 }
  - { offsetInCU: 0x59AE, offset: 0xFDFA, size: 0x8, addend: 0x0, symName: __ZNKSt3__117__compressed_pairIP4TreeNS_9allocatorIS1_EEE5firstB7v160006Ev, symObjAddr: 0x860, symBinAddr: 0x1000014D0, symSize: 0x20 }
  - { offsetInCU: 0x59D2, offset: 0xFE1E, size: 0x8, addend: 0x0, symName: __ZNKSt3__122__compressed_pair_elemIP4TreeLi0ELb0EE5__getB7v160006Ev, symObjAddr: 0x880, symBinAddr: 0x1000014F0, symSize: 0xE }
  - { offsetInCU: 0x804E, offset: 0x17EAE, size: 0x8, addend: 0x0, symName: __ZNSt3__16copy_nB7v160006IPKcmPcEENS_9enable_ifIXsr33__is_cpp17_random_access_iteratorIT_EE5valueET1_E4typeES5_T0_S6_, symObjAddr: 0x5070, symBinAddr: 0x1000064E0, symSize: 0x40 }
  - { offsetInCU: 0x971C, offset: 0x1957C, size: 0x8, addend: 0x0, symName: __ZNSt3__1plB7v160006IcNS_11char_traitsIcEENS_9allocatorIcEEEENS_12basic_stringIT_T0_T1_EERKS9_SB_, symObjAddr: 0xC80, symBinAddr: 0x100002180, symSize: 0x110 }
  - { offsetInCU: 0x97BE, offset: 0x1961E, size: 0x8, addend: 0x0, symName: __ZNSt3__1plB7v160006IcNS_11char_traitsIcEENS_9allocatorIcEEEENS_12basic_stringIT_T0_T1_EERKS9_PKS6_, symObjAddr: 0xD90, symBinAddr: 0x100002290, symSize: 0x100 }
  - { offsetInCU: 0x9860, offset: 0x196C0, size: 0x8, addend: 0x0, symName: __ZNSt3__118__debug_db_erase_cB7v160006INS_6vectorINS_4pairINS_12basic_stringIcNS_11char_traitsIcEENS_9allocatorIcEEEEN5Lexer5TokenEEENS6_ISB_EEEEEEvPT_, symObjAddr: 0x3BD0, symBinAddr: 0x1000050C0, symSize: 0x10 }
  - { offsetInCU: 0x9891, offset: 0x196F1, size: 0x8, addend: 0x0, symName: __ZNSt3__112__to_addressB7v160006INS_4pairINS_12basic_stringIcNS_11char_traitsIcEENS_9allocatorIcEEEEN5Lexer5TokenEEEEEPT_SC_, symObjAddr: 0x3CE0, symBinAddr: 0x1000051D0, symSize: 0x10 }
  - { offsetInCU: 0x98F9, offset: 0x19759, size: 0x8, addend: 0x0, symName: __ZNSt3__119__debug_db_insert_cB7v160006INS_12basic_stringIcNS_11char_traitsIcEENS_9allocatorIcEEEEEEvPT_, symObjAddr: 0x4490, symBinAddr: 0x100005900, symSize: 0x10 }
  - { offsetInCU: 0x992A, offset: 0x1978A, size: 0x8, addend: 0x0, symName: __ZNSt3__118__constexpr_strlenB7v160006EPKc, symObjAddr: 0x4530, symBinAddr: 0x1000059A0, symSize: 0x20 }
  - { offsetInCU: 0x9956, offset: 0x197B6, size: 0x8, addend: 0x0, symName: __ZNSt3__112__to_addressB7v160006IcEEPT_S2_, symObjAddr: 0x4600, symBinAddr: 0x100005A70, symSize: 0x10 }
  - { offsetInCU: 0x9B8D, offset: 0x199ED, size: 0x8, addend: 0x0, symName: __ZNSt3__120__throw_length_errorB7v160006EPKc, symObjAddr: 0x4DD0, symBinAddr: 0x100006240, symSize: 0x70 }
  - { offsetInCU: 0x9BB5, offset: 0x19A15, size: 0x8, addend: 0x0, symName: __ZNSt3__117__libcpp_allocateB7v160006Emm, symObjAddr: 0x4FA0, symBinAddr: 0x100006410, symSize: 0x20 }
  - { offsetInCU: 0x9BF2, offset: 0x19A52, size: 0x8, addend: 0x0, symName: __ZNSt3__121__libcpp_operator_newB7v160006IJmEEEPvDpT_, symObjAddr: 0x4FC0, symBinAddr: 0x100006430, symSize: 0x20 }
  - { offsetInCU: 0x9C5E, offset: 0x19ABE, size: 0x8, addend: 0x0, symName: __ZNSt3__14copyB7v160006IPKcPcEET0_T_S5_S4_, symObjAddr: 0x50B0, symBinAddr: 0x100006520, symSize: 0x40 }
  - { offsetInCU: 0x9CB8, offset: 0x19B18, size: 0x8, addend: 0x0, symName: __ZNSt3__16__copyB7v160006INS_17_ClassicAlgPolicyEPKcS3_PcEENS_4pairIT0_T2_EES6_T1_S7_, symObjAddr: 0x50F0, symBinAddr: 0x100006560, symSize: 0x40 }
  - { offsetInCU: 0x9D24, offset: 0x19B84, size: 0x8, addend: 0x0, symName: __ZNSt3__123__dispatch_copy_or_moveB7v160006INS_17_ClassicAlgPolicyENS_11__copy_loopIS1_EENS_14__copy_trivialEPKcS6_PcEENS_4pairIT2_T4_EES9_T3_SA_, symObjAddr: 0x5130, symBinAddr: 0x1000065A0, symSize: 0x60 }
  - { offsetInCU: 0x9DA2, offset: 0x19C02, size: 0x8, addend: 0x0, symName: __ZNSt3__121__unwrap_and_dispatchB7v160006INS_10__overloadINS_11__copy_loopINS_17_ClassicAlgPolicyEEENS_14__copy_trivialEEEPKcS8_PcLi0EEENS_4pairIT0_T2_EESB_T1_SC_, symObjAddr: 0x5190, symBinAddr: 0x100006600, symSize: 0xB0 }
  - { offsetInCU: 0x9E31, offset: 0x19C91, size: 0x8, addend: 0x0, symName: __ZNSt3__114__unwrap_rangeB7v160006IPKcS2_EENS_4pairIT0_S4_EET_S6_, symObjAddr: 0x5240, symBinAddr: 0x1000066B0, symSize: 0x50 }
  - { offsetInCU: 0x9F70, offset: 0x19DD0, size: 0x8, addend: 0x0, symName: __ZNSt3__113__unwrap_iterB7v160006IPcNS_18__unwrap_iter_implIS1_Lb1EEELi0EEEDTclsrT0_8__unwrapclsr3stdE7declvalIT_EEEES5_, symObjAddr: 0x52D0, symBinAddr: 0x100006740, symSize: 0x20 }
  - { offsetInCU: 0x9FB4, offset: 0x19E14, size: 0x8, addend: 0x0, symName: __ZNSt3__19make_pairB7v160006IPKcPcEENS_4pairINS_18__unwrap_ref_decayIT_E4typeENS5_IT0_E4typeEEEOS6_OS9_, symObjAddr: 0x52F0, symBinAddr: 0x100006760, symSize: 0x30 }
  - { offsetInCU: 0xA003, offset: 0x19E63, size: 0x8, addend: 0x0, symName: __ZNSt3__114__rewrap_rangeB7v160006IPKcS2_EET_S3_T0_, symObjAddr: 0x5320, symBinAddr: 0x100006790, symSize: 0x30 }
  - { offsetInCU: 0xA04F, offset: 0x19EAF, size: 0x8, addend: 0x0, symName: __ZNSt3__113__rewrap_iterB7v160006IPcS1_NS_18__unwrap_iter_implIS1_Lb1EEEEET_S4_T0_, symObjAddr: 0x5350, symBinAddr: 0x1000067C0, symSize: 0x50 }
  - { offsetInCU: 0xA0A4, offset: 0x19F04, size: 0x8, addend: 0x0, symName: __ZNSt3__19make_pairB7v160006IPKcS2_EENS_4pairINS_18__unwrap_ref_decayIT_E4typeENS4_IT0_E4typeEEEOS5_OS8_, symObjAddr: 0x53A0, symBinAddr: 0x100006810, symSize: 0x30 }
  - { offsetInCU: 0xA0F3, offset: 0x19F53, size: 0x8, addend: 0x0, symName: __ZNSt3__113__unwrap_iterB7v160006IPKcNS_18__unwrap_iter_implIS2_Lb1EEELi0EEEDTclsrT0_8__unwrapclsr3stdE7declvalIT_EEEES6_, symObjAddr: 0x53D0, symBinAddr: 0x100006840, symSize: 0x20 }
  - { offsetInCU: 0xA237, offset: 0x1A097, size: 0x8, addend: 0x0, symName: __ZNSt3__112__to_addressB7v160006IKcEEPT_S3_, symObjAddr: 0x5470, symBinAddr: 0x1000068E0, symSize: 0x10 }
  - { offsetInCU: 0xA26C, offset: 0x1A0CC, size: 0x8, addend: 0x0, symName: __ZNSt3__119__copy_trivial_implB7v160006IKccEENS_4pairIPT_PT0_EES4_S4_S6_, symObjAddr: 0x5480, symBinAddr: 0x1000068F0, symSize: 0x70 }
  - { offsetInCU: 0xA2D4, offset: 0x1A134, size: 0x8, addend: 0x0, symName: __ZNSt3__19make_pairB7v160006IRPKcPcEENS_4pairINS_18__unwrap_ref_decayIT_E4typeENS6_IT0_E4typeEEEOS7_OSA_, symObjAddr: 0x54F0, symBinAddr: 0x100006960, symSize: 0x30 }
  - { offsetInCU: 0xA376, offset: 0x1A1D6, size: 0x8, addend: 0x0, symName: __ZNSt3__113__rewrap_iterB7v160006IPKcS2_NS_18__unwrap_iter_implIS2_Lb1EEEEET_S5_T0_, symObjAddr: 0x55A0, symBinAddr: 0x100006A10, symSize: 0x50 }
  - { offsetInCU: 0xA3FE, offset: 0x1A25E, size: 0x8, addend: 0x0, symName: __ZNSt3__16fill_nB7v160006IPcmcEET_S2_T0_RKT1_, symObjAddr: 0x5720, symBinAddr: 0x100006B90, symSize: 0x40 }
  - { offsetInCU: 0xA461, offset: 0x1A2C1, size: 0x8, addend: 0x0, symName: __ZNSt3__18__fill_nB7v160006IPcmcEET_S2_T0_RKT1_, symObjAddr: 0x5760, symBinAddr: 0x100006BD0, symSize: 0x50 }
  - { offsetInCU: 0xA4C4, offset: 0x1A324, size: 0x8, addend: 0x0, symName: __ZNSt3__121__convert_to_integralB7v160006Em, symObjAddr: 0x57B0, symBinAddr: 0x100006C20, symSize: 0x10 }
  - { offsetInCU: 0xA4F0, offset: 0x1A350, size: 0x8, addend: 0x0, symName: __ZNSt3__1neB7v160006ERKNS_14__map_iteratorINS_15__tree_iteratorINS_12__value_typeINS_12basic_stringIcNS_11char_traitsIcEENS_9allocatorIcEEEENS_6vectorINS_4pairIS8_N5Lexer5TokenEEENS6_ISD_EEEEEEPNS_11__tree_nodeISG_PvEElEEEESO_, symObjAddr: 0x5800, symBinAddr: 0x100006C70, symSize: 0x30 }
  - { offsetInCU: 0xA52D, offset: 0x1A38D, size: 0x8, addend: 0x0, symName: __ZNSt3__1neB7v160006IPNS_4pairINS_12basic_stringIcNS_11char_traitsIcEENS_9allocatorIcEEEEN5Lexer5TokenEEEEEbRKNS_11__wrap_iterIT_EESG_, symObjAddr: 0x58C0, symBinAddr: 0x100006D30, symSize: 0x30 }
  - { offsetInCU: 0xA570, offset: 0x1A3D0, size: 0x8, addend: 0x0, symName: __ZNSt3__1eqB7v160006INS_9allocatorIcEEEEbRKNS_12basic_stringIcNS_11char_traitsIcEET_EES9_, symObjAddr: 0x5920, symBinAddr: 0x100006D90, symSize: 0x110 }
  - { offsetInCU: 0xA5E3, offset: 0x1A443, size: 0x8, addend: 0x0, symName: __ZNSt3__1neB7v160006ERKNS_15__tree_iteratorINS_12__value_typeINS_12basic_stringIcNS_11char_traitsIcEENS_9allocatorIcEEEENS_6vectorINS_4pairIS7_N5Lexer5TokenEEENS5_ISC_EEEEEEPNS_11__tree_nodeISF_PvEElEESM_, symObjAddr: 0x5C20, symBinAddr: 0x100007090, symSize: 0x30 }
  - { offsetInCU: 0xA620, offset: 0x1A480, size: 0x8, addend: 0x0, symName: __ZNSt3__1ltB7v160006IcNS_11char_traitsIcEENS_9allocatorIcEEEEbRKNS_12basic_stringIT_T0_T1_EESB_, symObjAddr: 0x5DC0, symBinAddr: 0x100007230, symSize: 0x30 }
  - { offsetInCU: 0xA69C, offset: 0x1A4FC, size: 0x8, addend: 0x0, symName: __ZNSt3__13minB7v160006ImEERKT_S3_S3_, symObjAddr: 0x6030, symBinAddr: 0x1000074A0, symSize: 0x30 }
  - { offsetInCU: 0xA6DF, offset: 0x1A53F, size: 0x8, addend: 0x0, symName: __ZNSt3__118__constexpr_memcmpB7v160006IcEEiPKT_S3_m, symObjAddr: 0x6060, symBinAddr: 0x1000074D0, symSize: 0x30 }
  - { offsetInCU: 0xA730, offset: 0x1A590, size: 0x8, addend: 0x0, symName: __ZNSt3__13minB7v160006ImNS_6__lessImmEEEERKT_S5_S5_T0_, symObjAddr: 0x6090, symBinAddr: 0x100007500, symSize: 0x50 }
  - { offsetInCU: 0xA7C5, offset: 0x1A625, size: 0x8, addend: 0x0, symName: __ZNSt3__1eqB7v160006ERKNS_15__tree_iteratorINS_12__value_typeINS_12basic_stringIcNS_11char_traitsIcEENS_9allocatorIcEEEENS_6vectorINS_4pairIS7_N5Lexer5TokenEEENS5_ISC_EEEEEEPNS_11__tree_nodeISF_PvEElEESM_, symObjAddr: 0x6190, symBinAddr: 0x100007600, symSize: 0x30 }
  - { offsetInCU: 0xA868, offset: 0x1A6C8, size: 0x8, addend: 0x0, symName: __ZNSt3__1eqB7v160006IPNS_4pairINS_12basic_stringIcNS_11char_traitsIcEENS_9allocatorIcEEEEN5Lexer5TokenEEEEEbRKNS_11__wrap_iterIT_EESG_, symObjAddr: 0x6300, symBinAddr: 0x100007770, symSize: 0x40 }
  - { offsetInCU: 0xA8AB, offset: 0x1A70B, size: 0x8, addend: 0x0, symName: __ZNSt3__125__debug_db_invalidate_allB7v160006INS_6vectorIcNS_9allocatorIcEEEEEEvPT_, symObjAddr: 0x6450, symBinAddr: 0x1000078C0, symSize: 0x10 }
  - { offsetInCU: 0xA8DC, offset: 0x1A73C, size: 0x8, addend: 0x0, symName: __ZNSt3__125__debug_db_invalidate_allB7v160006INS_6vectorINS_4pairINS_12basic_stringIcNS_11char_traitsIcEENS_9allocatorIcEEEEN5Lexer5TokenEEENS6_ISB_EEEEEEvPT_, symObjAddr: 0x67E0, symBinAddr: 0x100007C50, symSize: 0x10 }
  - { offsetInCU: 0xA90D, offset: 0x1A76D, size: 0x8, addend: 0x0, symName: __ZNSt3__116__tree_next_iterB7v160006IPNS_15__tree_end_nodeIPNS_16__tree_node_baseIPvEEEES5_EET_T0_, symObjAddr: 0x6850, symBinAddr: 0x100007CC0, symSize: 0xA0 }
  - { offsetInCU: 0xA94B, offset: 0x1A7AB, size: 0x8, addend: 0x0, symName: __ZNSt3__110__tree_minB7v160006IPNS_16__tree_node_baseIPvEEEET_S5_, symObjAddr: 0x68F0, symBinAddr: 0x100007D60, symSize: 0x30 }
  - { offsetInCU: 0xA980, offset: 0x1A7E0, size: 0x8, addend: 0x0, symName: __ZNSt3__120__tree_is_left_childB7v160006IPNS_16__tree_node_baseIPvEEEEbT_, symObjAddr: 0x6920, symBinAddr: 0x100007D90, symSize: 0x30 }
  - { offsetInCU: 0xA9B5, offset: 0x1A815, size: 0x8, addend: 0x0, symName: __ZNSt3__118__debug_db_erase_cB7v160006INS_6vectorIcNS_9allocatorIcEEEEEEvPT_, symObjAddr: 0x6BE0, symBinAddr: 0x100008050, symSize: 0x10 }
  - { offsetInCU: 0xA9E6, offset: 0x1A846, size: 0x8, addend: 0x0, symName: __ZNSt3__119__debug_db_insert_cB7v160006INS_6vectorIcNS_9allocatorIcEEEEEEvPT_, symObjAddr: 0x6D10, symBinAddr: 0x100008180, symSize: 0x10 }
  - { offsetInCU: 0xAA17, offset: 0x1A877, size: 0x8, addend: 0x0, symName: __ZNSt3__13maxB7v160006ImEERKT_S3_S3_, symObjAddr: 0x75A0, symBinAddr: 0x100008A10, symSize: 0x30 }
  - { offsetInCU: 0xAC5B, offset: 0x1AABB, size: 0x8, addend: 0x0, symName: __ZNSt3__13maxB7v160006ImNS_6__lessImmEEEERKT_S5_S5_T0_, symObjAddr: 0x7630, symBinAddr: 0x100008AA0, symSize: 0x50 }
  - { offsetInCU: 0xACB5, offset: 0x1AB15, size: 0x8, addend: 0x0, symName: __ZNSt3__119__allocate_at_leastB7v160006INS_9allocatorIcEEEENS_19__allocation_resultINS_16allocator_traitsIT_E7pointerEEERS5_m, symObjAddr: 0x7770, symBinAddr: 0x100008BE0, symSize: 0x40 }
  - { offsetInCU: 0xACF8, offset: 0x1AB58, size: 0x8, addend: 0x0, symName: __ZNSt3__142__uninitialized_allocator_move_if_noexceptB7v160006INS_9allocatorIcEENS_16reverse_iteratorIPcEES5_cvEET1_RT_T0_S9_S6_, symObjAddr: 0x7960, symBinAddr: 0x100008DD0, symSize: 0x120 }
  - { offsetInCU: 0xAD74, offset: 0x1ABD4, size: 0x8, addend: 0x0, symName: __ZNSt3__14swapB7v160006IPcEEvRT_S3_, symObjAddr: 0x7AD0, symBinAddr: 0x100008F40, symSize: 0x40 }
  - { offsetInCU: 0xADC5, offset: 0x1AC25, size: 0x8, addend: 0x0, symName: __ZNSt3__1neB7v160006IPcS1_EEbRKNS_16reverse_iteratorIT_EERKNS2_IT0_EE, symObjAddr: 0x7BB0, symBinAddr: 0x100009020, symSize: 0x40 }
  - { offsetInCU: 0xAE38, offset: 0x1AC98, size: 0x8, addend: 0x0, symName: __ZNSt3__114__construct_atB7v160006IcJcEPcEEPT_S3_DpOT0_, symObjAddr: 0x7BF0, symBinAddr: 0x100009060, symSize: 0x30 }
  - { offsetInCU: 0xAEAA, offset: 0x1AD0A, size: 0x8, addend: 0x0, symName: __ZNSt3__112__to_addressB7v160006INS_16reverse_iteratorIPcEEvEENS_5decayIDTclsr19__to_address_helperIT_EE6__callclsr3stdE7declvalIRKS5_EEEEE4typeES7_, symObjAddr: 0x7C20, symBinAddr: 0x100009090, symSize: 0x20 }
  - { offsetInCU: 0xAEE0, offset: 0x1AD40, size: 0x8, addend: 0x0, symName: __ZNSt3__14moveB7v160006INS_16reverse_iteratorIPcEES3_EET0_T_S5_S4_, symObjAddr: 0x7C90, symBinAddr: 0x100009100, symSize: 0x80 }
  - { offsetInCU: 0xAF64, offset: 0x1ADC4, size: 0x8, addend: 0x0, symName: __ZNSt3__16__moveB7v160006INS_17_ClassicAlgPolicyENS_16reverse_iteratorIPcEES4_S4_EENS_4pairIT0_T2_EES6_T1_S7_, symObjAddr: 0x7D80, symBinAddr: 0x1000091F0, symSize: 0x90 }
  - { offsetInCU: 0xAFD0, offset: 0x1AE30, size: 0x8, addend: 0x0, symName: __ZNSt3__123__dispatch_copy_or_moveB7v160006INS_17_ClassicAlgPolicyENS_11__move_loopIS1_EENS_14__move_trivialENS_16reverse_iteratorIPcEES7_S7_EENS_4pairIT2_T4_EES9_T3_SA_, symObjAddr: 0x7E10, symBinAddr: 0x100009280, symSize: 0xB0 }
  - { offsetInCU: 0xB04E, offset: 0x1AEAE, size: 0x8, addend: 0x0, symName: __ZNSt3__121__unwrap_and_dispatchB7v160006INS_10__overloadINS_11__move_loopINS_17_ClassicAlgPolicyEEENS_14__move_trivialEEENS_16reverse_iteratorIPcEES9_S9_Li0EEENS_4pairIT0_T2_EESB_T1_SC_, symObjAddr: 0x7EC0, symBinAddr: 0x100009330, symSize: 0x210 }
  - { offsetInCU: 0xB0DD, offset: 0x1AF3D, size: 0x8, addend: 0x0, symName: __ZNSt3__114__unwrap_rangeB7v160006INS_16reverse_iteratorIPcEES3_EENS_4pairIT0_S5_EET_S7_, symObjAddr: 0x80D0, symBinAddr: 0x100009540, symSize: 0x90 }
  - { offsetInCU: 0xB231, offset: 0x1B091, size: 0x8, addend: 0x0, symName: __ZNSt3__113__unwrap_iterB7v160006INS_16reverse_iteratorIPcEENS_18__unwrap_iter_implIS3_Lb0EEELi0EEEDTclsrT0_8__unwrapclsr3stdE7declvalIT_EEEES7_, symObjAddr: 0x8200, symBinAddr: 0x100009670, symSize: 0x40 }
  - { offsetInCU: 0xB275, offset: 0x1B0D5, size: 0x8, addend: 0x0, symName: __ZNSt3__19make_pairB7v160006INS_16reverse_iteratorIPcEES3_EENS_4pairINS_18__unwrap_ref_decayIT_E4typeENS5_IT0_E4typeEEEOS6_OS9_, symObjAddr: 0x8240, symBinAddr: 0x1000096B0, symSize: 0x30 }
  - { offsetInCU: 0xB2C4, offset: 0x1B124, size: 0x8, addend: 0x0, symName: __ZNSt3__114__rewrap_rangeB7v160006INS_16reverse_iteratorIPcEES3_EET_S4_T0_, symObjAddr: 0x8270, symBinAddr: 0x1000096E0, symSize: 0x60 }
  - { offsetInCU: 0xB310, offset: 0x1B170, size: 0x8, addend: 0x0, symName: __ZNSt3__113__rewrap_iterB7v160006INS_16reverse_iteratorIPcEES3_NS_18__unwrap_iter_implIS3_Lb0EEEEET_S6_T0_, symObjAddr: 0x82D0, symBinAddr: 0x100009740, symSize: 0x80 }
  - { offsetInCU: 0xB435, offset: 0x1B295, size: 0x8, addend: 0x0, symName: __ZNSt3__119__debug_db_insert_cB7v160006INS_6vectorINS_4pairINS_12basic_stringIcNS_11char_traitsIcEENS_9allocatorIcEEEEN5Lexer5TokenEEENS6_ISB_EEEEEEvPT_, symObjAddr: 0x9020, symBinAddr: 0x10000A490, symSize: 0x10 }
  - { offsetInCU: 0xB466, offset: 0x1B2C6, size: 0x8, addend: 0x0, symName: __ZNSt3__127__tree_balance_after_insertB7v160006IPNS_16__tree_node_baseIPvEEEEvT_S5_, symObjAddr: 0x90E0, symBinAddr: 0x10000A550, symSize: 0x240 }
  - { offsetInCU: 0xB4E4, offset: 0x1B344, size: 0x8, addend: 0x0, symName: __ZNSt3__118__tree_left_rotateB7v160006IPNS_16__tree_node_baseIPvEEEEvT_, symObjAddr: 0x9320, symBinAddr: 0x10000A790, symSize: 0xE0 }
  - { offsetInCU: 0xB526, offset: 0x1B386, size: 0x8, addend: 0x0, symName: __ZNSt3__119__tree_right_rotateB7v160006IPNS_16__tree_node_baseIPvEEEEvT_, symObjAddr: 0x9400, symBinAddr: 0x10000A870, symSize: 0xC0 }
  - { offsetInCU: 0xB568, offset: 0x1B3C8, size: 0x8, addend: 0x0, symName: __ZNSt3__119__allocate_at_leastB7v160006INS_9allocatorINS_4pairINS_12basic_stringIcNS_11char_traitsIcEENS1_IcEEEEN5Lexer5TokenEEEEEEENS_19__allocation_resultINS_16allocator_traitsIT_E7pointerEEERSE_m, symObjAddr: 0x9E50, symBinAddr: 0x10000B2C0, symSize: 0x40 }
  - { offsetInCU: 0xB5AB, offset: 0x1B40B, size: 0x8, addend: 0x0, symName: __ZNSt3__142__uninitialized_allocator_move_if_noexceptB7v160006INS_9allocatorINS_4pairINS_12basic_stringIcNS_11char_traitsIcEENS1_IcEEEEN5Lexer5TokenEEEEENS_16reverse_iteratorIPSA_EESE_SE_EET2_RT_T0_T1_SF_, symObjAddr: 0xA010, symBinAddr: 0x10000B480, symSize: 0x190 }
  - { offsetInCU: 0xB64A, offset: 0x1B4AA, size: 0x8, addend: 0x0, symName: __ZNSt3__14swapB7v160006IPNS_4pairINS_12basic_stringIcNS_11char_traitsIcEENS_9allocatorIcEEEEN5Lexer5TokenEEEEEvRT_SD_, symObjAddr: 0xA1F0, symBinAddr: 0x10000B660, symSize: 0x40 }
  - { offsetInCU: 0xB69B, offset: 0x1B4FB, size: 0x8, addend: 0x0, symName: __ZNSt3__122__make_exception_guardB7v160006INS_29_AllocatorDestroyRangeReverseINS_9allocatorINS_4pairINS_12basic_stringIcNS_11char_traitsIcEENS2_IcEEEEN5Lexer5TokenEEEEENS_16reverse_iteratorIPSB_EEEEEENS_28__exception_guard_exceptionsIT_EESI_, symObjAddr: 0xA2E0, symBinAddr: 0x10000B750, symSize: 0x60 }
  - { offsetInCU: 0xB6D0, offset: 0x1B530, size: 0x8, addend: 0x0, symName: __ZNSt3__1neB7v160006IPNS_4pairINS_12basic_stringIcNS_11char_traitsIcEENS_9allocatorIcEEEEN5Lexer5TokenEEESB_EEbRKNS_16reverse_iteratorIT_EERKNSC_IT0_EE, symObjAddr: 0xA380, symBinAddr: 0x10000B7F0, symSize: 0x40 }
  - { offsetInCU: 0xB71C, offset: 0x1B57C, size: 0x8, addend: 0x0, symName: __ZNSt3__112__to_addressB7v160006INS_16reverse_iteratorIPNS_4pairINS_12basic_stringIcNS_11char_traitsIcEENS_9allocatorIcEEEEN5Lexer5TokenEEEEEvEENS_5decayIDTclsr19__to_address_helperIT_EE6__callclsr3stdE7declvalIRKSF_EEEEE4typeESH_, symObjAddr: 0xA3F0, symBinAddr: 0x10000B860, symSize: 0x20 }
  - { offsetInCU: 0xB77C, offset: 0x1B5DC, size: 0x8, addend: 0x0, symName: __ZNSt3__119__allocator_destroyB7v160006INS_9allocatorINS_4pairINS_12basic_stringIcNS_11char_traitsIcEENS1_IcEEEEN5Lexer5TokenEEEEENS_16reverse_iteratorINSC_IPSA_EEEESF_EEvRT_T0_T1_, symObjAddr: 0xA780, symBinAddr: 0x10000BBF0, symSize: 0x70 }
  - { offsetInCU: 0xB7DF, offset: 0x1B63F, size: 0x8, addend: 0x0, symName: __ZNSt3__1neB7v160006INS_16reverse_iteratorIPNS_4pairINS_12basic_stringIcNS_11char_traitsIcEENS_9allocatorIcEEEEN5Lexer5TokenEEEEESD_EEbRKNS1_IT_EERKNS1_IT0_EE, symObjAddr: 0xA820, symBinAddr: 0x10000BC90, symSize: 0x50 }
  - { offsetInCU: 0xB82B, offset: 0x1B68B, size: 0x8, addend: 0x0, symName: __ZNSt3__112__to_addressB7v160006INS_16reverse_iteratorINS1_IPNS_4pairINS_12basic_stringIcNS_11char_traitsIcEENS_9allocatorIcEEEEN5Lexer5TokenEEEEEEEvEENS_5decayIDTclsr19__to_address_helperIT_EE6__callclsr3stdE7declvalIRKSG_EEEEE4typeESI_, symObjAddr: 0xA870, symBinAddr: 0x10000BCE0, symSize: 0x20 }
  - { offsetInCU: 0xBAFC, offset: 0x1B95C, size: 0x8, addend: 0x0, symName: __ZSt28__throw_bad_array_new_lengthB7v160006v, symObjAddr: 0x4F60, symBinAddr: 0x1000063D0, symSize: 0x40 }
  - { offsetInCU: 0xC415, offset: 0x1C275, size: 0x8, addend: 0x0, symName: __ZN5Lexer8toStringENS_5TokenE, symObjAddr: 0x560, symBinAddr: 0x100001A60, symSize: 0x20 }
  - { offsetInCU: 0xC437, offset: 0x1C297, size: 0x8, addend: 0x0, symName: __ZZN5Lexer8toStringENS_5TokenEE6tokens, symObjAddr: 0xB210, symBinAddr: 0x10002C000, symSize: 0x0 }
  - { offsetInCU: 0xC4BB, offset: 0x1C31B, size: 0x8, addend: 0x0, symName: __ZNSt3__16vectorIcNS_9allocatorIcEEE26__swap_out_circular_bufferERNS_14__split_bufferIcRS2_EE, symObjAddr: 0x7290, symBinAddr: 0x100008700, symSize: 0x130 }
  - { offsetInCU: 0xC511, offset: 0x1C371, size: 0x8, addend: 0x0, symName: __ZNSt3__16vectorINS_4pairINS_12basic_stringIcNS_11char_traitsIcEENS_9allocatorIcEEEEN5Lexer5TokenEEENS5_ISA_EEE26__swap_out_circular_bufferERNS_14__split_bufferISA_RSB_EE, symObjAddr: 0x9AE0, symBinAddr: 0x10000AF50, symSize: 0x130 }
  - { offsetInCU: 0xE315, offset: 0x1E175, size: 0x8, addend: 0x0, symName: __Z13charIsNumericc, symObjAddr: 0x0, symBinAddr: 0x100001500, symSize: 0x40 }
  - { offsetInCU: 0xE341, offset: 0x1E1A1, size: 0x8, addend: 0x0, symName: __Z16charIsWhiteSpacec, symObjAddr: 0x40, symBinAddr: 0x100001540, symSize: 0x40 }
  - { offsetInCU: 0xE36D, offset: 0x1E1CD, size: 0x8, addend: 0x0, symName: __Z8charIsIdc, symObjAddr: 0x80, symBinAddr: 0x100001580, symSize: 0x90 }
  - { offsetInCU: 0xE399, offset: 0x1E1F9, size: 0x8, addend: 0x0, symName: __Z15charIsDelimiterc, symObjAddr: 0x110, symBinAddr: 0x100001610, symSize: 0x220 }
  - { offsetInCU: 0xE3C5, offset: 0x1E225, size: 0x8, addend: 0x0, symName: __Z14charIsOperatorc, symObjAddr: 0x330, symBinAddr: 0x100001830, symSize: 0x1D0 }
  - { offsetInCU: 0xE3F1, offset: 0x1E251, size: 0x8, addend: 0x0, symName: __Z15getOpFinalStatec, symObjAddr: 0x500, symBinAddr: 0x100001A00, symSize: 0x60 }
  - { offsetInCU: 0xE41E, offset: 0x1E27E, size: 0x8, addend: 0x0, symName: __ZN5Lexer5errorEPKcS1_iNS_5TokenES1_, symObjAddr: 0x580, symBinAddr: 0x100001A80, symSize: 0x700 }
  - { offsetInCU: 0xE4C9, offset: 0x1E329, size: 0x8, addend: 0x0, symName: __ZNSt3__112basic_stringIcNS_11char_traitsIcEENS_9allocatorIcEEEC1B7v160006IDnEEPKc, symObjAddr: 0xE90, symBinAddr: 0x100002390, symSize: 0x30 }
  - { offsetInCU: 0xE505, offset: 0x1E365, size: 0x8, addend: 0x0, symName: __ZN5Lexer4loadEPKc, symObjAddr: 0xED0, symBinAddr: 0x1000023C0, symSize: 0x80 }
  - { offsetInCU: 0xE539, offset: 0x1E399, size: 0x8, addend: 0x0, symName: __ZN5Lexer5printEv, symObjAddr: 0xF50, symBinAddr: 0x100002440, symSize: 0x80 }
  - { offsetInCU: 0xE57B, offset: 0x1E3DB, size: 0x8, addend: 0x0, symName: __ZN5Lexer12getNextTokenEv, symObjAddr: 0xFD0, symBinAddr: 0x1000024C0, symSize: 0x1280 }
  - { offsetInCU: 0xE619, offset: 0x1E479, size: 0x8, addend: 0x0, symName: __ZNSt3__16vectorIcNS_9allocatorIcEEE4dataB7v160006Ev, symObjAddr: 0x2250, symBinAddr: 0x100003740, symSize: 0x20 }
  - { offsetInCU: 0xE63C, offset: 0x1E49C, size: 0x8, addend: 0x0, symName: __ZNSt3__16vectorIcNS_9allocatorIcEEEixB7v160006Em, symObjAddr: 0x2270, symBinAddr: 0x100003760, symSize: 0x20 }
  - { offsetInCU: 0xE673, offset: 0x1E4D3, size: 0x8, addend: 0x0, symName: __ZN9HashTableIN5Lexer5TokenEE4findERKNSt3__112basic_stringIcNS3_11char_traitsIcEENS3_9allocatorIcEEEE, symObjAddr: 0x2290, symBinAddr: 0x100003780, symSize: 0x110 }
  - { offsetInCU: 0xE6D0, offset: 0x1E530, size: 0x8, addend: 0x0, symName: __ZN5Lexer11revertTokenEv, symObjAddr: 0x23A0, symBinAddr: 0x100003890, symSize: 0x20 }
  - { offsetInCU: 0xE6F8, offset: 0x1E558, size: 0x8, addend: 0x0, symName: __ZN5Lexer11getCurrLineEv, symObjAddr: 0x23C0, symBinAddr: 0x1000038B0, symSize: 0x20 }
  - { offsetInCU: 0xE720, offset: 0x1E580, size: 0x8, addend: 0x0, symName: __ZN5Lexer9getLexemeEv, symObjAddr: 0x23E0, symBinAddr: 0x1000038D0, symSize: 0x30 }
  - { offsetInCU: 0xE748, offset: 0x1E5A8, size: 0x8, addend: 0x0, symName: __ZN5Lexer5clearEv, symObjAddr: 0x2410, symBinAddr: 0x100003900, symSize: 0x50 }
  - { offsetInCU: 0xE770, offset: 0x1E5D0, size: 0x8, addend: 0x0, symName: __ZNSt3__16vectorIcNS_9allocatorIcEEE5clearB7v160006Ev, symObjAddr: 0x2460, symBinAddr: 0x100003950, symSize: 0x60 }
  - { offsetInCU: 0xE7A3, offset: 0x1E603, size: 0x8, addend: 0x0, symName: __ZN9HashTableIN5Lexer5TokenEE5clearEv, symObjAddr: 0x24C0, symBinAddr: 0x1000039B0, symSize: 0x80 }
  - { offsetInCU: 0xE7D5, offset: 0x1E635, size: 0x8, addend: 0x0, symName: __ZN5LexerD2Ev, symObjAddr: 0x2540, symBinAddr: 0x100003A30, symSize: 0x170 }
  - { offsetInCU: 0xE801, offset: 0x1E661, size: 0x8, addend: 0x0, symName: __ZN9HashTableIN5Lexer5TokenEED1Ev, symObjAddr: 0x26B0, symBinAddr: 0x100003BA0, symSize: 0x20 }
  - { offsetInCU: 0xE82B, offset: 0x1E68B, size: 0x8, addend: 0x0, symName: __ZNSt3__16vectorIcNS_9allocatorIcEEED1B7v160006Ev, symObjAddr: 0x26D0, symBinAddr: 0x100003BC0, symSize: 0x20 }
  - { offsetInCU: 0xE853, offset: 0x1E6B3, size: 0x8, addend: 0x0, symName: __ZN5LexerD1Ev, symObjAddr: 0x26F0, symBinAddr: 0x100003BE0, symSize: 0x20 }
  - { offsetInCU: 0xE87F, offset: 0x1E6DF, size: 0x8, addend: 0x0, symName: __ZN5LexerD0Ev, symObjAddr: 0x2710, symBinAddr: 0x100003C00, symSize: 0x50 }
  - { offsetInCU: 0xE8AB, offset: 0x1E70B, size: 0x8, addend: 0x0, symName: __ZN5LexerC2Ev, symObjAddr: 0x2760, symBinAddr: 0x100003C50, symSize: 0xCE0 }
  - { offsetInCU: 0xE8D7, offset: 0x1E737, size: 0x8, addend: 0x0, symName: __ZNSt3__16vectorIcNS_9allocatorIcEEEC1B7v160006Ev, symObjAddr: 0x3440, symBinAddr: 0x100004930, symSize: 0x20 }
  - { offsetInCU: 0xE8FF, offset: 0x1E75F, size: 0x8, addend: 0x0, symName: __ZN9HashTableIN5Lexer5TokenEEC1Ev, symObjAddr: 0x3460, symBinAddr: 0x100004950, symSize: 0x20 }
  - { offsetInCU: 0xE929, offset: 0x1E789, size: 0x8, addend: 0x0, symName: __ZNSt3__112basic_stringIcNS_11char_traitsIcEENS_9allocatorIcEEEC1B7v160006Ev, symObjAddr: 0x3480, symBinAddr: 0x100004970, symSize: 0x20 }
  - { offsetInCU: 0xE950, offset: 0x1E7B0, size: 0x8, addend: 0x0, symName: __ZNSt3__16vectorIcNS_9allocatorIcEEE6resizeEm, symObjAddr: 0x34A0, symBinAddr: 0x100004990, symSize: 0x70 }
  - { offsetInCU: 0xE996, offset: 0x1E7F6, size: 0x8, addend: 0x0, symName: __ZN9HashTableIN5Lexer5TokenEEixERKNSt3__112basic_stringIcNS3_11char_traitsIcEENS3_9allocatorIcEEEE, symObjAddr: 0x3510, symBinAddr: 0x100004A00, symSize: 0x1E0 }
  - { offsetInCU: 0xEA02, offset: 0x1E862, size: 0x8, addend: 0x0, symName: __ZN5LexerC1Ev, symObjAddr: 0x36F0, symBinAddr: 0x100004BE0, symSize: 0x20 }
  - { offsetInCU: 0xEA2E, offset: 0x1E88E, size: 0x8, addend: 0x0, symName: __ZN9HashTableIN5Lexer5TokenEED2Ev, symObjAddr: 0x3710, symBinAddr: 0x100004C00, symSize: 0x20 }
  - { offsetInCU: 0xEA58, offset: 0x1E8B8, size: 0x8, addend: 0x0, symName: __ZNSt3__13mapINS_12basic_stringIcNS_11char_traitsIcEENS_9allocatorIcEEEENS_6vectorINS_4pairIS6_N5Lexer5TokenEEENS4_ISB_EEEENS_4lessIS6_EENS4_INS8_IKS6_SD_EEEEED1B7v160006Ev, symObjAddr: 0x3730, symBinAddr: 0x100004C20, symSize: 0x20 }
  - { offsetInCU: 0xEA80, offset: 0x1E8E0, size: 0x8, addend: 0x0, symName: __ZNSt3__13mapINS_12basic_stringIcNS_11char_traitsIcEENS_9allocatorIcEEEENS_6vectorINS_4pairIS6_N5Lexer5TokenEEENS4_ISB_EEEENS_4lessIS6_EENS4_INS8_IKS6_SD_EEEEED2B7v160006Ev, symObjAddr: 0x3750, symBinAddr: 0x100004C40, symSize: 0x20 }
  - { offsetInCU: 0xEAA8, offset: 0x1E908, size: 0x8, addend: 0x0, symName: __ZNSt3__16__treeINS_12__value_typeINS_12basic_stringIcNS_11char_traitsIcEENS_9allocatorIcEEEENS_6vectorINS_4pairIS7_N5Lexer5TokenEEENS5_ISC_EEEEEENS_19__map_value_compareIS7_SF_NS_4lessIS7_EELb1EEENS5_ISF_EEED1Ev, symObjAddr: 0x3770, symBinAddr: 0x100004C60, symSize: 0x20 }
  - { offsetInCU: 0xEAD3, offset: 0x1E933, size: 0x8, addend: 0x0, symName: __ZNSt3__16__treeINS_12__value_typeINS_12basic_stringIcNS_11char_traitsIcEENS_9allocatorIcEEEENS_6vectorINS_4pairIS7_N5Lexer5TokenEEENS5_ISC_EEEEEENS_19__map_value_compareIS7_SF_NS_4lessIS7_EELb1EEENS5_ISF_EEED2Ev, symObjAddr: 0x3790, symBinAddr: 0x100004C80, symSize: 0x30 }
  - { offsetInCU: 0xEAFD, offset: 0x1E95D, size: 0x8, addend: 0x0, symName: __ZNSt3__16__treeINS_12__value_typeINS_12basic_stringIcNS_11char_traitsIcEENS_9allocatorIcEEEENS_6vectorINS_4pairIS7_N5Lexer5TokenEEENS5_ISC_EEEEEENS_19__map_value_compareIS7_SF_NS_4lessIS7_EELb1EEENS5_ISF_EEE7destroyEPNS_11__tree_nodeISF_PvEE, symObjAddr: 0x37C0, symBinAddr: 0x100004CB0, symSize: 0xC0 }
  - { offsetInCU: 0xEB52, offset: 0x1E9B2, size: 0x8, addend: 0x0, symName: __ZNKSt3__16__treeINS_12__value_typeINS_12basic_stringIcNS_11char_traitsIcEENS_9allocatorIcEEEENS_6vectorINS_4pairIS7_N5Lexer5TokenEEENS5_ISC_EEEEEENS_19__map_value_compareIS7_SF_NS_4lessIS7_EELb1EEENS5_ISF_EEE6__rootB7v160006Ev, symObjAddr: 0x3880, symBinAddr: 0x100004D70, symSize: 0x20 }
  - { offsetInCU: 0xEB76, offset: 0x1E9D6, size: 0x8, addend: 0x0, symName: __ZNSt3__16__treeINS_12__value_typeINS_12basic_stringIcNS_11char_traitsIcEENS_9allocatorIcEEEENS_6vectorINS_4pairIS7_N5Lexer5TokenEEENS5_ISC_EEEEEENS_19__map_value_compareIS7_SF_NS_4lessIS7_EELb1EEENS5_ISF_EEE12__node_allocB7v160006Ev, symObjAddr: 0x38A0, symBinAddr: 0x100004D90, symSize: 0x20 }
  - { offsetInCU: 0xEB9A, offset: 0x1E9FA, size: 0x8, addend: 0x0, symName: __ZNSt3__116allocator_traitsINS_9allocatorINS_11__tree_nodeINS_12__value_typeINS_12basic_stringIcNS_11char_traitsIcEENS1_IcEEEENS_6vectorINS_4pairIS8_N5Lexer5TokenEEENS1_ISD_EEEEEEPvEEEEE7destroyB7v160006INSA_IKS8_SF_EEvvEEvRSJ_PT_, symObjAddr: 0x38C0, symBinAddr: 0x100004DB0, symSize: 0x20 }
  - { offsetInCU: 0xEBD3, offset: 0x1EA33, size: 0x8, addend: 0x0, symName: __ZNSt3__122__tree_key_value_typesINS_12__value_typeINS_12basic_stringIcNS_11char_traitsIcEENS_9allocatorIcEEEENS_6vectorINS_4pairIS7_N5Lexer5TokenEEENS5_ISC_EEEEEEE9__get_ptrB7v160006ERSF_, symObjAddr: 0x38E0, symBinAddr: 0x100004DD0, symSize: 0x20 }
  - { offsetInCU: 0xEBF6, offset: 0x1EA56, size: 0x8, addend: 0x0, symName: __ZNSt3__116allocator_traitsINS_9allocatorINS_11__tree_nodeINS_12__value_typeINS_12basic_stringIcNS_11char_traitsIcEENS1_IcEEEENS_6vectorINS_4pairIS8_N5Lexer5TokenEEENS1_ISD_EEEEEEPvEEEEE10deallocateB7v160006ERSJ_PSI_m, symObjAddr: 0x3900, symBinAddr: 0x100004DF0, symSize: 0x30 }
  - { offsetInCU: 0xEC37, offset: 0x1EA97, size: 0x8, addend: 0x0, symName: __ZNSt3__117__compressed_pairINS_15__tree_end_nodeIPNS_16__tree_node_baseIPvEEEENS_9allocatorINS_11__tree_nodeINS_12__value_typeINS_12basic_stringIcNS_11char_traitsIcEENS7_IcEEEENS_6vectorINS_4pairISE_N5Lexer5TokenEEENS7_ISJ_EEEEEES3_EEEEE6secondB7v160006Ev, symObjAddr: 0x3930, symBinAddr: 0x100004E20, symSize: 0x20 }
  - { offsetInCU: 0xEC5B, offset: 0x1EABB, size: 0x8, addend: 0x0, symName: __ZNSt3__122__compressed_pair_elemINS_9allocatorINS_11__tree_nodeINS_12__value_typeINS_12basic_stringIcNS_11char_traitsIcEENS1_IcEEEENS_6vectorINS_4pairIS8_N5Lexer5TokenEEENS1_ISD_EEEEEEPvEEEELi1ELb1EE5__getB7v160006Ev, symObjAddr: 0x3950, symBinAddr: 0x100004E40, symSize: 0x10 }
  - { offsetInCU: 0xEC7F, offset: 0x1EADF, size: 0x8, addend: 0x0, symName: __ZNSt3__14pairIKNS_12basic_stringIcNS_11char_traitsIcEENS_9allocatorIcEEEENS_6vectorINS0_IS6_N5Lexer5TokenEEENS4_ISB_EEEEED1Ev, symObjAddr: 0x3960, symBinAddr: 0x100004E50, symSize: 0x20 }
  - { offsetInCU: 0xECA9, offset: 0x1EB09, size: 0x8, addend: 0x0, symName: __ZNSt3__14pairIKNS_12basic_stringIcNS_11char_traitsIcEENS_9allocatorIcEEEENS_6vectorINS0_IS6_N5Lexer5TokenEEENS4_ISB_EEEEED2Ev, symObjAddr: 0x3980, symBinAddr: 0x100004E70, symSize: 0x70 }
  - { offsetInCU: 0xECD3, offset: 0x1EB33, size: 0x8, addend: 0x0, symName: __ZNSt3__16vectorINS_4pairINS_12basic_stringIcNS_11char_traitsIcEENS_9allocatorIcEEEEN5Lexer5TokenEEENS5_ISA_EEED1B7v160006Ev, symObjAddr: 0x39F0, symBinAddr: 0x100004EE0, symSize: 0x20 }
  - { offsetInCU: 0xECFB, offset: 0x1EB5B, size: 0x8, addend: 0x0, symName: __ZNSt3__16vectorINS_4pairINS_12basic_stringIcNS_11char_traitsIcEENS_9allocatorIcEEEEN5Lexer5TokenEEENS5_ISA_EEED2B7v160006Ev, symObjAddr: 0x3A10, symBinAddr: 0x100004F00, symSize: 0x30 }
  - { offsetInCU: 0xED23, offset: 0x1EB83, size: 0x8, addend: 0x0, symName: __ZNSt3__16vectorINS_4pairINS_12basic_stringIcNS_11char_traitsIcEENS_9allocatorIcEEEEN5Lexer5TokenEEENS5_ISA_EEE16__destroy_vectorC1ERSC_, symObjAddr: 0x3A40, symBinAddr: 0x100004F30, symSize: 0x30 }
  - { offsetInCU: 0xED5A, offset: 0x1EBBA, size: 0x8, addend: 0x0, symName: __ZNSt3__16vectorINS_4pairINS_12basic_stringIcNS_11char_traitsIcEENS_9allocatorIcEEEEN5Lexer5TokenEEENS5_ISA_EEE16__destroy_vectorclB7v160006Ev, symObjAddr: 0x3A70, symBinAddr: 0x100004F60, symSize: 0x90 }
  - { offsetInCU: 0xED7E, offset: 0x1EBDE, size: 0x8, addend: 0x0, symName: __ZNSt3__16vectorINS_4pairINS_12basic_stringIcNS_11char_traitsIcEENS_9allocatorIcEEEEN5Lexer5TokenEEENS5_ISA_EEE16__destroy_vectorC2ERSC_, symObjAddr: 0x3B00, symBinAddr: 0x100004FF0, symSize: 0x20 }
  - { offsetInCU: 0xEDB5, offset: 0x1EC15, size: 0x8, addend: 0x0, symName: __ZNKSt3__16vectorINS_4pairINS_12basic_stringIcNS_11char_traitsIcEENS_9allocatorIcEEEEN5Lexer5TokenEEENS5_ISA_EEE17__annotate_deleteB7v160006Ev, symObjAddr: 0x3B20, symBinAddr: 0x100005010, symSize: 0xB0 }
  - { offsetInCU: 0xEDD9, offset: 0x1EC39, size: 0x8, addend: 0x0, symName: __ZNSt3__16vectorINS_4pairINS_12basic_stringIcNS_11char_traitsIcEENS_9allocatorIcEEEEN5Lexer5TokenEEENS5_ISA_EEE7__clearB7v160006Ev, symObjAddr: 0x3BE0, symBinAddr: 0x1000050D0, symSize: 0x20 }
  - { offsetInCU: 0xEDFD, offset: 0x1EC5D, size: 0x8, addend: 0x0, symName: __ZNSt3__116allocator_traitsINS_9allocatorINS_4pairINS_12basic_stringIcNS_11char_traitsIcEENS1_IcEEEEN5Lexer5TokenEEEEEE10deallocateB7v160006ERSB_PSA_m, symObjAddr: 0x3C00, symBinAddr: 0x1000050F0, symSize: 0x30 }
  - { offsetInCU: 0xEE3E, offset: 0x1EC9E, size: 0x8, addend: 0x0, symName: __ZNSt3__16vectorINS_4pairINS_12basic_stringIcNS_11char_traitsIcEENS_9allocatorIcEEEEN5Lexer5TokenEEENS5_ISA_EEE7__allocB7v160006Ev, symObjAddr: 0x3C30, symBinAddr: 0x100005120, symSize: 0x20 }
  - { offsetInCU: 0xEE62, offset: 0x1ECC2, size: 0x8, addend: 0x0, symName: __ZNKSt3__16vectorINS_4pairINS_12basic_stringIcNS_11char_traitsIcEENS_9allocatorIcEEEEN5Lexer5TokenEEENS5_ISA_EEE8capacityB7v160006Ev, symObjAddr: 0x3C50, symBinAddr: 0x100005140, symSize: 0x30 }
  - { offsetInCU: 0xEE86, offset: 0x1ECE6, size: 0x8, addend: 0x0, symName: __ZNKSt3__16vectorINS_4pairINS_12basic_stringIcNS_11char_traitsIcEENS_9allocatorIcEEEEN5Lexer5TokenEEENS5_ISA_EEE31__annotate_contiguous_containerB7v160006EPKvSE_SE_SE_, symObjAddr: 0x3C80, symBinAddr: 0x100005170, symSize: 0x20 }
  - { offsetInCU: 0xEED6, offset: 0x1ED36, size: 0x8, addend: 0x0, symName: __ZNKSt3__16vectorINS_4pairINS_12basic_stringIcNS_11char_traitsIcEENS_9allocatorIcEEEEN5Lexer5TokenEEENS5_ISA_EEE4dataB7v160006Ev, symObjAddr: 0x3CA0, symBinAddr: 0x100005190, symSize: 0x20 }
  - { offsetInCU: 0xEEFA, offset: 0x1ED5A, size: 0x8, addend: 0x0, symName: __ZNKSt3__16vectorINS_4pairINS_12basic_stringIcNS_11char_traitsIcEENS_9allocatorIcEEEEN5Lexer5TokenEEENS5_ISA_EEE4sizeB7v160006Ev, symObjAddr: 0x3CC0, symBinAddr: 0x1000051B0, symSize: 0x20 }
  - { offsetInCU: 0xEF1E, offset: 0x1ED7E, size: 0x8, addend: 0x0, symName: __ZNSt3__16vectorINS_4pairINS_12basic_stringIcNS_11char_traitsIcEENS_9allocatorIcEEEEN5Lexer5TokenEEENS5_ISA_EEE22__base_destruct_at_endB7v160006EPSA_, symObjAddr: 0x3CF0, symBinAddr: 0x1000051E0, symSize: 0x90 }
  - { offsetInCU: 0xEF60, offset: 0x1EDC0, size: 0x8, addend: 0x0, symName: __ZNSt3__116allocator_traitsINS_9allocatorINS_4pairINS_12basic_stringIcNS_11char_traitsIcEENS1_IcEEEEN5Lexer5TokenEEEEEE7destroyB7v160006ISA_vEEvRSB_PT_, symObjAddr: 0x3D80, symBinAddr: 0x100005270, symSize: 0x30 }
  - { offsetInCU: 0xEF9C, offset: 0x1EDFC, size: 0x8, addend: 0x0, symName: __ZNSt3__19allocatorINS_4pairINS_12basic_stringIcNS_11char_traitsIcEENS0_IcEEEEN5Lexer5TokenEEEE7destroyB7v160006EPS9_, symObjAddr: 0x3DB0, symBinAddr: 0x1000052A0, symSize: 0x20 }
  - { offsetInCU: 0xEFCE, offset: 0x1EE2E, size: 0x8, addend: 0x0, symName: __ZNSt3__14pairINS_12basic_stringIcNS_11char_traitsIcEENS_9allocatorIcEEEEN5Lexer5TokenEED1Ev, symObjAddr: 0x3DD0, symBinAddr: 0x1000052C0, symSize: 0x20 }
  - { offsetInCU: 0xEFF8, offset: 0x1EE58, size: 0x8, addend: 0x0, symName: __ZNSt3__14pairINS_12basic_stringIcNS_11char_traitsIcEENS_9allocatorIcEEEEN5Lexer5TokenEED2Ev, symObjAddr: 0x3DF0, symBinAddr: 0x1000052E0, symSize: 0x20 }
  - { offsetInCU: 0xF022, offset: 0x1EE82, size: 0x8, addend: 0x0, symName: __ZNSt3__19allocatorINS_4pairINS_12basic_stringIcNS_11char_traitsIcEENS0_IcEEEEN5Lexer5TokenEEEE10deallocateB7v160006EPS9_m, symObjAddr: 0x3E10, symBinAddr: 0x100005300, symSize: 0x70 }
  - { offsetInCU: 0xF062, offset: 0x1EEC2, size: 0x8, addend: 0x0, symName: __ZNSt3__117__compressed_pairIPNS_4pairINS_12basic_stringIcNS_11char_traitsIcEENS_9allocatorIcEEEEN5Lexer5TokenEEENS5_ISA_EEE6secondB7v160006Ev, symObjAddr: 0x3F00, symBinAddr: 0x100005370, symSize: 0x20 }
  - { offsetInCU: 0xF086, offset: 0x1EEE6, size: 0x8, addend: 0x0, symName: __ZNSt3__122__compressed_pair_elemINS_9allocatorINS_4pairINS_12basic_stringIcNS_11char_traitsIcEENS1_IcEEEEN5Lexer5TokenEEEEELi1ELb1EE5__getB7v160006Ev, symObjAddr: 0x3F20, symBinAddr: 0x100005390, symSize: 0x10 }
  - { offsetInCU: 0xF0AA, offset: 0x1EF0A, size: 0x8, addend: 0x0, symName: __ZNKSt3__16vectorINS_4pairINS_12basic_stringIcNS_11char_traitsIcEENS_9allocatorIcEEEEN5Lexer5TokenEEENS5_ISA_EEE9__end_capB7v160006Ev, symObjAddr: 0x3F30, symBinAddr: 0x1000053A0, symSize: 0x20 }
  - { offsetInCU: 0xF0CE, offset: 0x1EF2E, size: 0x8, addend: 0x0, symName: __ZNKSt3__117__compressed_pairIPNS_4pairINS_12basic_stringIcNS_11char_traitsIcEENS_9allocatorIcEEEEN5Lexer5TokenEEENS5_ISA_EEE5firstB7v160006Ev, symObjAddr: 0x3F50, symBinAddr: 0x1000053C0, symSize: 0x20 }
  - { offsetInCU: 0xF0F2, offset: 0x1EF52, size: 0x8, addend: 0x0, symName: __ZNKSt3__122__compressed_pair_elemIPNS_4pairINS_12basic_stringIcNS_11char_traitsIcEENS_9allocatorIcEEEEN5Lexer5TokenEEELi0ELb0EE5__getB7v160006Ev, symObjAddr: 0x3F70, symBinAddr: 0x1000053E0, symSize: 0x10 }
  - { offsetInCU: 0xF116, offset: 0x1EF76, size: 0x8, addend: 0x0, symName: __ZNSt3__112__value_typeINS_12basic_stringIcNS_11char_traitsIcEENS_9allocatorIcEEEENS_6vectorINS_4pairIS6_N5Lexer5TokenEEENS4_ISB_EEEEE11__get_valueB7v160006Ev, symObjAddr: 0x3F80, symBinAddr: 0x1000053F0, symSize: 0x10 }
  - { offsetInCU: 0xF13A, offset: 0x1EF9A, size: 0x8, addend: 0x0, symName: __ZNSt3__19allocatorINS_11__tree_nodeINS_12__value_typeINS_12basic_stringIcNS_11char_traitsIcEENS0_IcEEEENS_6vectorINS_4pairIS7_N5Lexer5TokenEEENS0_ISC_EEEEEEPvEEE10deallocateB7v160006EPSH_m, symObjAddr: 0x3F90, symBinAddr: 0x100005400, symSize: 0x80 }
  - { offsetInCU: 0xF17A, offset: 0x1EFDA, size: 0x8, addend: 0x0, symName: __ZNKSt3__16__treeINS_12__value_typeINS_12basic_stringIcNS_11char_traitsIcEENS_9allocatorIcEEEENS_6vectorINS_4pairIS7_N5Lexer5TokenEEENS5_ISC_EEEEEENS_19__map_value_compareIS7_SF_NS_4lessIS7_EELb1EEENS5_ISF_EEE10__end_nodeB7v160006Ev, symObjAddr: 0x4010, symBinAddr: 0x100005480, symSize: 0x30 }
  - { offsetInCU: 0xF19E, offset: 0x1EFFE, size: 0x8, addend: 0x0, symName: __ZNSt3__114pointer_traitsIPNS_15__tree_end_nodeIPNS_16__tree_node_baseIPvEEEEE10pointer_toB7v160006ERS6_, symObjAddr: 0x4040, symBinAddr: 0x1000054B0, symSize: 0x10 }
  - { offsetInCU: 0xF1C0, offset: 0x1F020, size: 0x8, addend: 0x0, symName: __ZNKSt3__117__compressed_pairINS_15__tree_end_nodeIPNS_16__tree_node_baseIPvEEEENS_9allocatorINS_11__tree_nodeINS_12__value_typeINS_12basic_stringIcNS_11char_traitsIcEENS7_IcEEEENS_6vectorINS_4pairISE_N5Lexer5TokenEEENS7_ISJ_EEEEEES3_EEEEE5firstB7v160006Ev, symObjAddr: 0x4050, symBinAddr: 0x1000054C0, symSize: 0x20 }
  - { offsetInCU: 0xF1E4, offset: 0x1F044, size: 0x8, addend: 0x0, symName: __ZNKSt3__122__compressed_pair_elemINS_15__tree_end_nodeIPNS_16__tree_node_baseIPvEEEELi0ELb0EE5__getB7v160006Ev, symObjAddr: 0x4070, symBinAddr: 0x1000054E0, symSize: 0x10 }
  - { offsetInCU: 0xF208, offset: 0x1F068, size: 0x8, addend: 0x0, symName: __ZN9HashTableIN5Lexer5TokenEEC2Ev, symObjAddr: 0x4080, symBinAddr: 0x1000054F0, symSize: 0x20 }
  - { offsetInCU: 0xF232, offset: 0x1F092, size: 0x8, addend: 0x0, symName: __ZNSt3__13mapINS_12basic_stringIcNS_11char_traitsIcEENS_9allocatorIcEEEENS_6vectorINS_4pairIS6_N5Lexer5TokenEEENS4_ISB_EEEENS_4lessIS6_EENS4_INS8_IKS6_SD_EEEEEC1B7v160006Ev, symObjAddr: 0x40A0, symBinAddr: 0x100005510, symSize: 0x20 }
  - { offsetInCU: 0xF25A, offset: 0x1F0BA, size: 0x8, addend: 0x0, symName: __ZNSt3__13mapINS_12basic_stringIcNS_11char_traitsIcEENS_9allocatorIcEEEENS_6vectorINS_4pairIS6_N5Lexer5TokenEEENS4_ISB_EEEENS_4lessIS6_EENS4_INS8_IKS6_SD_EEEEEC2B7v160006Ev, symObjAddr: 0x40C0, symBinAddr: 0x100005530, symSize: 0x30 }
  - { offsetInCU: 0xF282, offset: 0x1F0E2, size: 0x8, addend: 0x0, symName: __ZNSt3__119__map_value_compareINS_12basic_stringIcNS_11char_traitsIcEENS_9allocatorIcEEEENS_12__value_typeIS6_NS_6vectorINS_4pairIS6_N5Lexer5TokenEEENS4_ISC_EEEEEENS_4lessIS6_EELb1EEC1B7v160006ESH_, symObjAddr: 0x40F0, symBinAddr: 0x100005560, symSize: 0x20 }
  - { offsetInCU: 0xF2B9, offset: 0x1F119, size: 0x8, addend: 0x0, symName: __ZNSt3__16__treeINS_12__value_typeINS_12basic_stringIcNS_11char_traitsIcEENS_9allocatorIcEEEENS_6vectorINS_4pairIS7_N5Lexer5TokenEEENS5_ISC_EEEEEENS_19__map_value_compareIS7_SF_NS_4lessIS7_EELb1EEENS5_ISF_EEEC1ERKSJ_, symObjAddr: 0x4110, symBinAddr: 0x100005580, symSize: 0x30 }
  - { offsetInCU: 0xF2F3, offset: 0x1F153, size: 0x8, addend: 0x0, symName: __ZNSt3__119__map_value_compareINS_12basic_stringIcNS_11char_traitsIcEENS_9allocatorIcEEEENS_12__value_typeIS6_NS_6vectorINS_4pairIS6_N5Lexer5TokenEEENS4_ISC_EEEEEENS_4lessIS6_EELb1EEC2B7v160006ESH_, symObjAddr: 0x4140, symBinAddr: 0x1000055B0, symSize: 0x10 }
  - { offsetInCU: 0xF32A, offset: 0x1F18A, size: 0x8, addend: 0x0, symName: __ZNSt3__16__treeINS_12__value_typeINS_12basic_stringIcNS_11char_traitsIcEENS_9allocatorIcEEEENS_6vectorINS_4pairIS7_N5Lexer5TokenEEENS5_ISC_EEEEEENS_19__map_value_compareIS7_SF_NS_4lessIS7_EELb1EEENS5_ISF_EEEC2ERKSJ_, symObjAddr: 0x4150, symBinAddr: 0x1000055C0, symSize: 0x60 }
  - { offsetInCU: 0xF364, offset: 0x1F1C4, size: 0x8, addend: 0x0, symName: __ZNSt3__117__compressed_pairINS_15__tree_end_nodeIPNS_16__tree_node_baseIPvEEEENS_9allocatorINS_11__tree_nodeINS_12__value_typeINS_12basic_stringIcNS_11char_traitsIcEENS7_IcEEEENS_6vectorINS_4pairISE_N5Lexer5TokenEEENS7_ISJ_EEEEEES3_EEEEEC1B7v160006ILb1EvEEv, symObjAddr: 0x41B0, symBinAddr: 0x100005620, symSize: 0x20 }
  - { offsetInCU: 0xF39C, offset: 0x1F1FC, size: 0x8, addend: 0x0, symName: __ZNSt3__117__compressed_pairImNS_19__map_value_compareINS_12basic_stringIcNS_11char_traitsIcEENS_9allocatorIcEEEENS_12__value_typeIS7_NS_6vectorINS_4pairIS7_N5Lexer5TokenEEENS5_ISD_EEEEEENS_4lessIS7_EELb1EEEEC1B7v160006IiRKSJ_EEOT_OT0_, symObjAddr: 0x41D0, symBinAddr: 0x100005640, symSize: 0x30 }
  - { offsetInCU: 0xF3F2, offset: 0x1F252, size: 0x8, addend: 0x0, symName: __ZNSt3__16__treeINS_12__value_typeINS_12basic_stringIcNS_11char_traitsIcEENS_9allocatorIcEEEENS_6vectorINS_4pairIS7_N5Lexer5TokenEEENS5_ISC_EEEEEENS_19__map_value_compareIS7_SF_NS_4lessIS7_EELb1EEENS5_ISF_EEE10__end_nodeB7v160006Ev, symObjAddr: 0x4200, symBinAddr: 0x100005670, symSize: 0x30 }
  - { offsetInCU: 0xF416, offset: 0x1F276, size: 0x8, addend: 0x0, symName: __ZNSt3__16__treeINS_12__value_typeINS_12basic_stringIcNS_11char_traitsIcEENS_9allocatorIcEEEENS_6vectorINS_4pairIS7_N5Lexer5TokenEEENS5_ISC_EEEEEENS_19__map_value_compareIS7_SF_NS_4lessIS7_EELb1EEENS5_ISF_EEE12__begin_nodeB7v160006Ev, symObjAddr: 0x4230, symBinAddr: 0x1000056A0, symSize: 0x10 }
  - { offsetInCU: 0xF43A, offset: 0x1F29A, size: 0x8, addend: 0x0, symName: __ZNSt3__117__compressed_pairINS_15__tree_end_nodeIPNS_16__tree_node_baseIPvEEEENS_9allocatorINS_11__tree_nodeINS_12__value_typeINS_12basic_stringIcNS_11char_traitsIcEENS7_IcEEEENS_6vectorINS_4pairISE_N5Lexer5TokenEEENS7_ISJ_EEEEEES3_EEEEEC2B7v160006ILb1EvEEv, symObjAddr: 0x4240, symBinAddr: 0x1000056B0, symSize: 0x30 }
  - { offsetInCU: 0xF46D, offset: 0x1F2CD, size: 0x8, addend: 0x0, symName: __ZNSt3__122__compressed_pair_elemINS_15__tree_end_nodeIPNS_16__tree_node_baseIPvEEEELi0ELb0EEC2B7v160006ENS_16__value_init_tagE, symObjAddr: 0x4270, symBinAddr: 0x1000056E0, symSize: 0x20 }
  - { offsetInCU: 0xF4A0, offset: 0x1F300, size: 0x8, addend: 0x0, symName: __ZNSt3__122__compressed_pair_elemINS_9allocatorINS_11__tree_nodeINS_12__value_typeINS_12basic_stringIcNS_11char_traitsIcEENS1_IcEEEENS_6vectorINS_4pairIS8_N5Lexer5TokenEEENS1_ISD_EEEEEEPvEEEELi1ELb1EEC2B7v160006ENS_16__value_init_tagE, symObjAddr: 0x4290, symBinAddr: 0x100005700, symSize: 0x20 }
  - { offsetInCU: 0xF4D3, offset: 0x1F333, size: 0x8, addend: 0x0, symName: __ZNSt3__115__tree_end_nodeIPNS_16__tree_node_baseIPvEEEC1B7v160006Ev, symObjAddr: 0x42B0, symBinAddr: 0x100005720, symSize: 0x20 }
  - { offsetInCU: 0xF4FB, offset: 0x1F35B, size: 0x8, addend: 0x0, symName: __ZNSt3__115__tree_end_nodeIPNS_16__tree_node_baseIPvEEEC2B7v160006Ev, symObjAddr: 0x42D0, symBinAddr: 0x100005740, symSize: 0x20 }
  - { offsetInCU: 0xF523, offset: 0x1F383, size: 0x8, addend: 0x0, symName: __ZNSt3__19allocatorINS_11__tree_nodeINS_12__value_typeINS_12basic_stringIcNS_11char_traitsIcEENS0_IcEEEENS_6vectorINS_4pairIS7_N5Lexer5TokenEEENS0_ISC_EEEEEEPvEEEC2B7v160006Ev, symObjAddr: 0x42F0, symBinAddr: 0x100005760, symSize: 0x20 }
  - { offsetInCU: 0xF54B, offset: 0x1F3AB, size: 0x8, addend: 0x0, symName: __ZNSt3__116__non_trivial_ifILb1ENS_9allocatorINS_11__tree_nodeINS_12__value_typeINS_12basic_stringIcNS_11char_traitsIcEENS1_IcEEEENS_6vectorINS_4pairIS8_N5Lexer5TokenEEENS1_ISD_EEEEEEPvEEEEEC2B7v160006Ev, symObjAddr: 0x4310, symBinAddr: 0x100005780, symSize: 0x10 }
  - { offsetInCU: 0xF573, offset: 0x1F3D3, size: 0x8, addend: 0x0, symName: __ZNSt3__117__compressed_pairImNS_19__map_value_compareINS_12basic_stringIcNS_11char_traitsIcEENS_9allocatorIcEEEENS_12__value_typeIS7_NS_6vectorINS_4pairIS7_N5Lexer5TokenEEENS5_ISD_EEEEEENS_4lessIS7_EELb1EEEEC2B7v160006IiRKSJ_EEOT_OT0_, symObjAddr: 0x4320, symBinAddr: 0x100005790, symSize: 0x40 }
  - { offsetInCU: 0xF5C9, offset: 0x1F429, size: 0x8, addend: 0x0, symName: __ZNSt3__122__compressed_pair_elemImLi0ELb0EEC2B7v160006IivEEOT_, symObjAddr: 0x4360, symBinAddr: 0x1000057D0, symSize: 0x20 }
  - { offsetInCU: 0xF609, offset: 0x1F469, size: 0x8, addend: 0x0, symName: __ZNSt3__122__compressed_pair_elemINS_19__map_value_compareINS_12basic_stringIcNS_11char_traitsIcEENS_9allocatorIcEEEENS_12__value_typeIS7_NS_6vectorINS_4pairIS7_N5Lexer5TokenEEENS5_ISD_EEEEEENS_4lessIS7_EELb1EEELi1ELb1EEC2B7v160006IRKSJ_vEEOT_, symObjAddr: 0x4380, symBinAddr: 0x1000057F0, symSize: 0x10 }
  - { offsetInCU: 0xF649, offset: 0x1F4A9, size: 0x8, addend: 0x0, symName: __ZNSt3__117__compressed_pairINS_15__tree_end_nodeIPNS_16__tree_node_baseIPvEEEENS_9allocatorINS_11__tree_nodeINS_12__value_typeINS_12basic_stringIcNS_11char_traitsIcEENS7_IcEEEENS_6vectorINS_4pairISE_N5Lexer5TokenEEENS7_ISJ_EEEEEES3_EEEEE5firstB7v160006Ev, symObjAddr: 0x4390, symBinAddr: 0x100005800, symSize: 0x20 }
  - { offsetInCU: 0xF66D, offset: 0x1F4CD, size: 0x8, addend: 0x0, symName: __ZNSt3__122__compressed_pair_elemINS_15__tree_end_nodeIPNS_16__tree_node_baseIPvEEEELi0ELb0EE5__getB7v160006Ev, symObjAddr: 0x43B0, symBinAddr: 0x100005820, symSize: 0x10 }
  - { offsetInCU: 0xF691, offset: 0x1F4F1, size: 0x8, addend: 0x0, symName: __ZNSt3__112basic_stringIcNS_11char_traitsIcEENS_9allocatorIcEEEC2B7v160006IDnEEPKc, symObjAddr: 0x43C0, symBinAddr: 0x100005830, symSize: 0x60 }
  - { offsetInCU: 0xF6D2, offset: 0x1F532, size: 0x8, addend: 0x0, symName: __ZNSt3__117__compressed_pairINS_12basic_stringIcNS_11char_traitsIcEENS_9allocatorIcEEE5__repES5_EC1B7v160006INS_18__default_init_tagESA_EEOT_OT0_, symObjAddr: 0x4420, symBinAddr: 0x100005890, symSize: 0x30 }
  - { offsetInCU: 0xF728, offset: 0x1F588, size: 0x8, addend: 0x0, symName: __ZNSt3__111char_traitsIcE6lengthEPKc, symObjAddr: 0x4450, symBinAddr: 0x1000058C0, symSize: 0x40 }
  - { offsetInCU: 0xF74A, offset: 0x1F5AA, size: 0x8, addend: 0x0, symName: __ZNSt3__117__compressed_pairINS_12basic_stringIcNS_11char_traitsIcEENS_9allocatorIcEEE5__repES5_EC2B7v160006INS_18__default_init_tagESA_EEOT_OT0_, symObjAddr: 0x44A0, symBinAddr: 0x100005910, symSize: 0x30 }
  - { offsetInCU: 0xF7A0, offset: 0x1F600, size: 0x8, addend: 0x0, symName: __ZNSt3__122__compressed_pair_elemINS_12basic_stringIcNS_11char_traitsIcEENS_9allocatorIcEEE5__repELi0ELb0EEC2B7v160006ENS_18__default_init_tagE, symObjAddr: 0x44D0, symBinAddr: 0x100005940, symSize: 0x10 }
  - { offsetInCU: 0xF7D3, offset: 0x1F633, size: 0x8, addend: 0x0, symName: __ZNSt3__122__compressed_pair_elemINS_9allocatorIcEELi1ELb1EEC2B7v160006ENS_18__default_init_tagE, symObjAddr: 0x44E0, symBinAddr: 0x100005950, symSize: 0x20 }
  - { offsetInCU: 0xF806, offset: 0x1F666, size: 0x8, addend: 0x0, symName: __ZNSt3__19allocatorIcEC2B7v160006Ev, symObjAddr: 0x4500, symBinAddr: 0x100005970, symSize: 0x20 }
  - { offsetInCU: 0xF82E, offset: 0x1F68E, size: 0x8, addend: 0x0, symName: __ZNSt3__116__non_trivial_ifILb1ENS_9allocatorIcEEEC2B7v160006Ev, symObjAddr: 0x4520, symBinAddr: 0x100005990, symSize: 0x10 }
  - { offsetInCU: 0xF856, offset: 0x1F6B6, size: 0x8, addend: 0x0, symName: __ZNKSt3__112basic_stringIcNS_11char_traitsIcEENS_9allocatorIcEEE4sizeB7v160006Ev, symObjAddr: 0x4550, symBinAddr: 0x1000059C0, symSize: 0x50 }
  - { offsetInCU: 0xF884, offset: 0x1F6E4, size: 0x8, addend: 0x0, symName: __ZNSt3__116allocator_traitsINS_9allocatorIcEEE37select_on_container_copy_constructionB7v160006IS2_vvEES2_RKS2_, symObjAddr: 0x45A0, symBinAddr: 0x100005A10, symSize: 0x10 }
  - { offsetInCU: 0xF8B2, offset: 0x1F712, size: 0x8, addend: 0x0, symName: __ZNKSt3__112basic_stringIcNS_11char_traitsIcEENS_9allocatorIcEEE13get_allocatorB7v160006Ev, symObjAddr: 0x45B0, symBinAddr: 0x100005A20, symSize: 0x20 }
  - { offsetInCU: 0xF8D6, offset: 0x1F736, size: 0x8, addend: 0x0, symName: __ZNSt3__112basic_stringIcNS_11char_traitsIcEENS_9allocatorIcEEEC1B7v160006ENS_24__uninitialized_size_tagEmRKS4_, symObjAddr: 0x45D0, symBinAddr: 0x100005A40, symSize: 0x30 }
  - { offsetInCU: 0xF927, offset: 0x1F787, size: 0x8, addend: 0x0, symName: __ZNSt3__112basic_stringIcNS_11char_traitsIcEENS_9allocatorIcEEE13__get_pointerB7v160006Ev, symObjAddr: 0x4610, symBinAddr: 0x100005A80, symSize: 0x50 }
  - { offsetInCU: 0xF94B, offset: 0x1F7AB, size: 0x8, addend: 0x0, symName: __ZNSt3__111char_traitsIcE4copyEPcPKcm, symObjAddr: 0x4660, symBinAddr: 0x100005AD0, symSize: 0x90 }
  - { offsetInCU: 0xF989, offset: 0x1F7E9, size: 0x8, addend: 0x0, symName: __ZNKSt3__112basic_stringIcNS_11char_traitsIcEENS_9allocatorIcEEE4dataB7v160006Ev, symObjAddr: 0x46F0, symBinAddr: 0x100005B60, symSize: 0x30 }
  - { offsetInCU: 0xF9AD, offset: 0x1F80D, size: 0x8, addend: 0x0, symName: __ZNSt3__111char_traitsIcE6assignEPcmc, symObjAddr: 0x4720, symBinAddr: 0x100005B90, symSize: 0x50 }
  - { offsetInCU: 0xF9EB, offset: 0x1F84B, size: 0x8, addend: 0x0, symName: __ZNKSt3__112basic_stringIcNS_11char_traitsIcEENS_9allocatorIcEEE9__is_longB7v160006Ev, symObjAddr: 0x4770, symBinAddr: 0x100005BE0, symSize: 0x60 }
  - { offsetInCU: 0xFA0F, offset: 0x1F86F, size: 0x8, addend: 0x0, symName: __ZNKSt3__112basic_stringIcNS_11char_traitsIcEENS_9allocatorIcEEE15__get_long_sizeB7v160006Ev, symObjAddr: 0x47D0, symBinAddr: 0x100005C40, symSize: 0x20 }
  - { offsetInCU: 0xFA33, offset: 0x1F893, size: 0x8, addend: 0x0, symName: __ZNKSt3__112basic_stringIcNS_11char_traitsIcEENS_9allocatorIcEEE16__get_short_sizeB7v160006Ev, symObjAddr: 0x47F0, symBinAddr: 0x100005C60, symSize: 0x30 }
  - { offsetInCU: 0xFA57, offset: 0x1F8B7, size: 0x8, addend: 0x0, symName: __ZNKSt3__117__compressed_pairINS_12basic_stringIcNS_11char_traitsIcEENS_9allocatorIcEEE5__repES5_E5firstB7v160006Ev, symObjAddr: 0x4820, symBinAddr: 0x100005C90, symSize: 0x20 }
  - { offsetInCU: 0xFA7B, offset: 0x1F8DB, size: 0x8, addend: 0x0, symName: __ZNKSt3__122__compressed_pair_elemINS_12basic_stringIcNS_11char_traitsIcEENS_9allocatorIcEEE5__repELi0ELb0EE5__getB7v160006Ev, symObjAddr: 0x4840, symBinAddr: 0x100005CB0, symSize: 0x10 }
  - { offsetInCU: 0xFA9F, offset: 0x1F8FF, size: 0x8, addend: 0x0, symName: __ZNKSt3__112basic_stringIcNS_11char_traitsIcEENS_9allocatorIcEEE7__allocB7v160006Ev, symObjAddr: 0x4850, symBinAddr: 0x100005CC0, symSize: 0x20 }
  - { offsetInCU: 0xFAC3, offset: 0x1F923, size: 0x8, addend: 0x0, symName: __ZNKSt3__117__compressed_pairINS_12basic_stringIcNS_11char_traitsIcEENS_9allocatorIcEEE5__repES5_E6secondB7v160006Ev, symObjAddr: 0x4870, symBinAddr: 0x100005CE0, symSize: 0x20 }
  - { offsetInCU: 0xFAE7, offset: 0x1F947, size: 0x8, addend: 0x0, symName: __ZNKSt3__122__compressed_pair_elemINS_9allocatorIcEELi1ELb1EE5__getB7v160006Ev, symObjAddr: 0x4890, symBinAddr: 0x100005D00, symSize: 0x10 }
  - { offsetInCU: 0xFB0B, offset: 0x1F96B, size: 0x8, addend: 0x0, symName: __ZNSt3__112basic_stringIcNS_11char_traitsIcEENS_9allocatorIcEEEC2B7v160006ENS_24__uninitialized_size_tagEmRKS4_, symObjAddr: 0x48A0, symBinAddr: 0x100005D10, symSize: 0x120 }
  - { offsetInCU: 0xFB8B, offset: 0x1F9EB, size: 0x8, addend: 0x0, symName: __ZNSt3__117__compressed_pairINS_12basic_stringIcNS_11char_traitsIcEENS_9allocatorIcEEE5__repES5_EC1B7v160006INS_18__default_init_tagERKS5_EEOT_OT0_, symObjAddr: 0x49C0, symBinAddr: 0x100005E30, symSize: 0x30 }
  - { offsetInCU: 0xFBE1, offset: 0x1FA41, size: 0x8, addend: 0x0, symName: __ZNKSt3__112basic_stringIcNS_11char_traitsIcEENS_9allocatorIcEEE8max_sizeB7v160006Ev, symObjAddr: 0x49F0, symBinAddr: 0x100005E60, symSize: 0xA0 }
  - { offsetInCU: 0xFC32, offset: 0x1FA92, size: 0x8, addend: 0x0, symName: __ZNKSt3__112basic_stringIcNS_11char_traitsIcEENS_9allocatorIcEEE20__throw_length_errorB7v160006Ev, symObjAddr: 0x4A90, symBinAddr: 0x100005F00, symSize: 0x20 }
  - { offsetInCU: 0xFC56, offset: 0x1FAB6, size: 0x8, addend: 0x0, symName: __ZNSt3__112basic_stringIcNS_11char_traitsIcEENS_9allocatorIcEEE13__fits_in_ssoB7v160006Em, symObjAddr: 0x4AB0, symBinAddr: 0x100005F20, symSize: 0x40 }
  - { offsetInCU: 0xFC79, offset: 0x1FAD9, size: 0x8, addend: 0x0, symName: __ZNSt3__117__compressed_pairINS_12basic_stringIcNS_11char_traitsIcEENS_9allocatorIcEEE5__repES5_E5firstB7v160006Ev, symObjAddr: 0x4AF0, symBinAddr: 0x100005F60, symSize: 0x20 }
  - { offsetInCU: 0xFC9D, offset: 0x1FAFD, size: 0x8, addend: 0x0, symName: __ZNSt3__112basic_stringIcNS_11char_traitsIcEENS_9allocatorIcEEE16__set_short_sizeB7v160006Em, symObjAddr: 0x4B10, symBinAddr: 0x100005F80, symSize: 0x50 }
  - { offsetInCU: 0xFCD0, offset: 0x1FB30, size: 0x8, addend: 0x0, symName: __ZNSt3__112basic_stringIcNS_11char_traitsIcEENS_9allocatorIcEEE11__recommendB7v160006Em, symObjAddr: 0x4B60, symBinAddr: 0x100005FD0, symSize: 0x90 }
  - { offsetInCU: 0xFD02, offset: 0x1FB62, size: 0x8, addend: 0x0, symName: __ZNSt3__116allocator_traitsINS_9allocatorIcEEE8allocateB7v160006ERS2_m, symObjAddr: 0x4BF0, symBinAddr: 0x100006060, symSize: 0x30 }
  - { offsetInCU: 0xFD34, offset: 0x1FB94, size: 0x8, addend: 0x0, symName: __ZNSt3__112basic_stringIcNS_11char_traitsIcEENS_9allocatorIcEEE7__allocB7v160006Ev, symObjAddr: 0x4C20, symBinAddr: 0x100006090, symSize: 0x20 }
  - { offsetInCU: 0xFD58, offset: 0x1FBB8, size: 0x8, addend: 0x0, symName: __ZNSt3__112basic_stringIcNS_11char_traitsIcEENS_9allocatorIcEEE16__begin_lifetimeB7v160006EPcm, symObjAddr: 0x4C40, symBinAddr: 0x1000060B0, symSize: 0x10 }
  - { offsetInCU: 0xFD8A, offset: 0x1FBEA, size: 0x8, addend: 0x0, symName: __ZNSt3__112basic_stringIcNS_11char_traitsIcEENS_9allocatorIcEEE14__set_long_capB7v160006Em, symObjAddr: 0x4C50, symBinAddr: 0x1000060C0, symSize: 0x70 }
  - { offsetInCU: 0xFDBD, offset: 0x1FC1D, size: 0x8, addend: 0x0, symName: __ZNSt3__112basic_stringIcNS_11char_traitsIcEENS_9allocatorIcEEE18__set_long_pointerB7v160006EPc, symObjAddr: 0x4CC0, symBinAddr: 0x100006130, symSize: 0x30 }
  - { offsetInCU: 0xFDF0, offset: 0x1FC50, size: 0x8, addend: 0x0, symName: __ZNSt3__112basic_stringIcNS_11char_traitsIcEENS_9allocatorIcEEE15__set_long_sizeB7v160006Em, symObjAddr: 0x4CF0, symBinAddr: 0x100006160, symSize: 0x30 }
  - { offsetInCU: 0xFE23, offset: 0x1FC83, size: 0x8, addend: 0x0, symName: __ZNSt3__117__compressed_pairINS_12basic_stringIcNS_11char_traitsIcEENS_9allocatorIcEEE5__repES5_EC2B7v160006INS_18__default_init_tagERKS5_EEOT_OT0_, symObjAddr: 0x4D20, symBinAddr: 0x100006190, symSize: 0x40 }
  - { offsetInCU: 0xFE79, offset: 0x1FCD9, size: 0x8, addend: 0x0, symName: __ZNSt3__122__compressed_pair_elemINS_9allocatorIcEELi1ELb1EEC2B7v160006IRKS2_vEEOT_, symObjAddr: 0x4D60, symBinAddr: 0x1000061D0, symSize: 0x10 }
  - { offsetInCU: 0xFEB9, offset: 0x1FD19, size: 0x8, addend: 0x0, symName: __ZNSt3__116allocator_traitsINS_9allocatorIcEEE8max_sizeB7v160006IS2_vEEmRKS2_, symObjAddr: 0x4D70, symBinAddr: 0x1000061E0, symSize: 0x20 }
  - { offsetInCU: 0xFEE6, offset: 0x1FD46, size: 0x8, addend: 0x0, symName: __ZNSt3__114numeric_limitsImE3maxB7v160006Ev, symObjAddr: 0x4D90, symBinAddr: 0x100006200, symSize: 0x10 }
  - { offsetInCU: 0xFEFA, offset: 0x1FD5A, size: 0x8, addend: 0x0, symName: __ZNKSt3__19allocatorIcE8max_sizeB7v160006Ev, symObjAddr: 0x4DA0, symBinAddr: 0x100006210, symSize: 0x20 }
  - { offsetInCU: 0xFF1E, offset: 0x1FD7E, size: 0x8, addend: 0x0, symName: __ZNSt3__123__libcpp_numeric_limitsImLb1EE3maxB7v160006Ev, symObjAddr: 0x4DC0, symBinAddr: 0x100006230, symSize: 0x10 }
  - { offsetInCU: 0xFF32, offset: 0x1FD92, size: 0x8, addend: 0x0, symName: __ZNSt12length_errorC1B7v160006EPKc, symObjAddr: 0x4E40, symBinAddr: 0x1000062B0, symSize: 0x30 }
  - { offsetInCU: 0xFF68, offset: 0x1FDC8, size: 0x8, addend: 0x0, symName: __ZNSt12length_errorC2B7v160006EPKc, symObjAddr: 0x4E70, symBinAddr: 0x1000062E0, symSize: 0x40 }
  - { offsetInCU: 0xFF9E, offset: 0x1FDFE, size: 0x8, addend: 0x0, symName: __ZNSt3__122__compressed_pair_elemINS_12basic_stringIcNS_11char_traitsIcEENS_9allocatorIcEEE5__repELi0ELb0EE5__getB7v160006Ev, symObjAddr: 0x4EB0, symBinAddr: 0x100006320, symSize: 0x10 }
  - { offsetInCU: 0xFFC2, offset: 0x1FE22, size: 0x8, addend: 0x0, symName: __ZNSt3__112basic_stringIcNS_11char_traitsIcEENS_9allocatorIcEEE10__align_itB7v160006ILm16EEEmm, symObjAddr: 0x4EC0, symBinAddr: 0x100006330, symSize: 0x20 }
  - { offsetInCU: 0xFFEF, offset: 0x1FE4F, size: 0x8, addend: 0x0, symName: __ZNSt3__19allocatorIcE8allocateB7v160006Em, symObjAddr: 0x4EE0, symBinAddr: 0x100006350, symSize: 0x80 }
  - { offsetInCU: 0x10021, offset: 0x1FE81, size: 0x8, addend: 0x0, symName: __ZNSt3__117__compressed_pairINS_12basic_stringIcNS_11char_traitsIcEENS_9allocatorIcEEE5__repES5_E6secondB7v160006Ev, symObjAddr: 0x4FE0, symBinAddr: 0x100006450, symSize: 0x20 }
  - { offsetInCU: 0x10045, offset: 0x1FEA5, size: 0x8, addend: 0x0, symName: __ZNSt3__122__compressed_pair_elemINS_9allocatorIcEELi1ELb1EE5__getB7v160006Ev, symObjAddr: 0x5000, symBinAddr: 0x100006470, symSize: 0x10 }
  - { offsetInCU: 0x10069, offset: 0x1FEC9, size: 0x8, addend: 0x0, symName: __ZNSt3__112basic_stringIcNS_11char_traitsIcEENS_9allocatorIcEEE18__get_long_pointerB7v160006Ev, symObjAddr: 0x5010, symBinAddr: 0x100006480, symSize: 0x20 }
  - { offsetInCU: 0x1008D, offset: 0x1FEED, size: 0x8, addend: 0x0, symName: __ZNSt3__112basic_stringIcNS_11char_traitsIcEENS_9allocatorIcEEE19__get_short_pointerB7v160006Ev, symObjAddr: 0x5030, symBinAddr: 0x1000064A0, symSize: 0x30 }
  - { offsetInCU: 0x100B1, offset: 0x1FF11, size: 0x8, addend: 0x0, symName: __ZNSt3__114pointer_traitsIPcE10pointer_toB7v160006ERc, symObjAddr: 0x5060, symBinAddr: 0x1000064D0, symSize: 0x10 }
  - { offsetInCU: 0x100F6, offset: 0x1FF56, size: 0x8, addend: 0x0, symName: __ZNKSt3__114__copy_trivialclB7v160006IKccLi0EEENS_4pairIPT_PT0_EES5_S5_S7_, symObjAddr: 0x5290, symBinAddr: 0x100006700, symSize: 0x40 }
  - { offsetInCU: 0x10175, offset: 0x1FFD5, size: 0x8, addend: 0x0, symName: __ZNSt3__14pairIPKcS2_EC1B7v160006ERKS2_S5_, symObjAddr: 0x53F0, symBinAddr: 0x100006860, symSize: 0x30 }
  - { offsetInCU: 0x101B9, offset: 0x20019, size: 0x8, addend: 0x0, symName: __ZNSt3__14pairIPKcS2_EC2B7v160006ERKS2_S5_, symObjAddr: 0x5420, symBinAddr: 0x100006890, symSize: 0x30 }
  - { offsetInCU: 0x101FD, offset: 0x2005D, size: 0x8, addend: 0x0, symName: __ZNSt3__118__unwrap_iter_implIPKcLb1EE8__unwrapB7v160006ES2_, symObjAddr: 0x5450, symBinAddr: 0x1000068C0, symSize: 0x20 }
  - { offsetInCU: 0x1021F, offset: 0x2007F, size: 0x8, addend: 0x0, symName: __ZNSt3__14pairIPKcPcEC1B7v160006ERKS2_RKS3_, symObjAddr: 0x5520, symBinAddr: 0x100006990, symSize: 0x30 }
  - { offsetInCU: 0x10263, offset: 0x200C3, size: 0x8, addend: 0x0, symName: __ZNSt3__14pairIPKcPcEC2B7v160006ERKS2_RKS3_, symObjAddr: 0x5550, symBinAddr: 0x1000069C0, symSize: 0x30 }
  - { offsetInCU: 0x102A7, offset: 0x20107, size: 0x8, addend: 0x0, symName: __ZNSt3__118__unwrap_iter_implIPcLb1EE8__unwrapB7v160006ES1_, symObjAddr: 0x5580, symBinAddr: 0x1000069F0, symSize: 0x20 }
  - { offsetInCU: 0x102C9, offset: 0x20129, size: 0x8, addend: 0x0, symName: __ZNSt3__118__unwrap_iter_implIPKcLb1EE8__rewrapB7v160006ES2_S2_, symObjAddr: 0x55F0, symBinAddr: 0x100006A60, symSize: 0x40 }
  - { offsetInCU: 0x102F9, offset: 0x20159, size: 0x8, addend: 0x0, symName: __ZNSt3__118__unwrap_iter_implIPcLb1EE8__rewrapB7v160006ES1_S1_, symObjAddr: 0x5630, symBinAddr: 0x100006AA0, symSize: 0x40 }
  - { offsetInCU: 0x10329, offset: 0x20189, size: 0x8, addend: 0x0, symName: __ZNKSt3__112basic_stringIcNS_11char_traitsIcEENS_9allocatorIcEEE13__get_pointerB7v160006Ev, symObjAddr: 0x5670, symBinAddr: 0x100006AE0, symSize: 0x50 }
  - { offsetInCU: 0x1034D, offset: 0x201AD, size: 0x8, addend: 0x0, symName: __ZNKSt3__112basic_stringIcNS_11char_traitsIcEENS_9allocatorIcEEE18__get_long_pointerB7v160006Ev, symObjAddr: 0x56C0, symBinAddr: 0x100006B30, symSize: 0x20 }
  - { offsetInCU: 0x10371, offset: 0x201D1, size: 0x8, addend: 0x0, symName: __ZNKSt3__112basic_stringIcNS_11char_traitsIcEENS_9allocatorIcEEE19__get_short_pointerB7v160006Ev, symObjAddr: 0x56E0, symBinAddr: 0x100006B50, symSize: 0x30 }
  - { offsetInCU: 0x10395, offset: 0x201F5, size: 0x8, addend: 0x0, symName: __ZNSt3__114pointer_traitsIPKcE10pointer_toB7v160006ERS1_, symObjAddr: 0x5710, symBinAddr: 0x100006B80, symSize: 0x10 }
  - { offsetInCU: 0x103B7, offset: 0x20217, size: 0x8, addend: 0x0, symName: __ZNSt3__13mapINS_12basic_stringIcNS_11char_traitsIcEENS_9allocatorIcEEEENS_6vectorINS_4pairIS6_N5Lexer5TokenEEENS4_ISB_EEEENS_4lessIS6_EENS4_INS8_IKS6_SD_EEEEE4findB7v160006ERSG_, symObjAddr: 0x57C0, symBinAddr: 0x100006C30, symSize: 0x40 }
  - { offsetInCU: 0x103EA, offset: 0x2024A, size: 0x8, addend: 0x0, symName: __ZNSt3__13mapINS_12basic_stringIcNS_11char_traitsIcEENS_9allocatorIcEEEENS_6vectorINS_4pairIS6_N5Lexer5TokenEEENS4_ISB_EEEENS_4lessIS6_EENS4_INS8_IKS6_SD_EEEEE3endB7v160006Ev, symObjAddr: 0x5830, symBinAddr: 0x100006CA0, symSize: 0x30 }
  - { offsetInCU: 0x1040E, offset: 0x2026E, size: 0x8, addend: 0x0, symName: __ZNKSt3__114__map_iteratorINS_15__tree_iteratorINS_12__value_typeINS_12basic_stringIcNS_11char_traitsIcEENS_9allocatorIcEEEENS_6vectorINS_4pairIS8_N5Lexer5TokenEEENS6_ISD_EEEEEEPNS_11__tree_nodeISG_PvEElEEEptB7v160006Ev, symObjAddr: 0x5860, symBinAddr: 0x100006CD0, symSize: 0x30 }
  - { offsetInCU: 0x10431, offset: 0x20291, size: 0x8, addend: 0x0, symName: __ZNSt3__16vectorINS_4pairINS_12basic_stringIcNS_11char_traitsIcEENS_9allocatorIcEEEEN5Lexer5TokenEEENS5_ISA_EEE5beginB7v160006Ev, symObjAddr: 0x5890, symBinAddr: 0x100006D00, symSize: 0x30 }
  - { offsetInCU: 0x10458, offset: 0x202B8, size: 0x8, addend: 0x0, symName: __ZNSt3__16vectorINS_4pairINS_12basic_stringIcNS_11char_traitsIcEENS_9allocatorIcEEEEN5Lexer5TokenEEENS5_ISA_EEE3endB7v160006Ev, symObjAddr: 0x58F0, symBinAddr: 0x100006D60, symSize: 0x30 }
  - { offsetInCU: 0x10480, offset: 0x202E0, size: 0x8, addend: 0x0, symName: __ZNKSt3__111__wrap_iterIPNS_4pairINS_12basic_stringIcNS_11char_traitsIcEENS_9allocatorIcEEEEN5Lexer5TokenEEEEptB7v160006Ev, symObjAddr: 0x5A30, symBinAddr: 0x100006EA0, symSize: 0x20 }
  - { offsetInCU: 0x104A4, offset: 0x20304, size: 0x8, addend: 0x0, symName: __ZNSt3__111__wrap_iterIPNS_4pairINS_12basic_stringIcNS_11char_traitsIcEENS_9allocatorIcEEEEN5Lexer5TokenEEEEppB7v160006Ei, symObjAddr: 0x5A50, symBinAddr: 0x100006EC0, symSize: 0x30 }
  - { offsetInCU: 0x104E0, offset: 0x20340, size: 0x8, addend: 0x0, symName: __ZNSt3__16__treeINS_12__value_typeINS_12basic_stringIcNS_11char_traitsIcEENS_9allocatorIcEEEENS_6vectorINS_4pairIS7_N5Lexer5TokenEEENS5_ISC_EEEEEENS_19__map_value_compareIS7_SF_NS_4lessIS7_EELb1EEENS5_ISF_EEE4findIS7_EENS_15__tree_iteratorISF_PNS_11__tree_nodeISF_PvEElEERKT_, symObjAddr: 0x5A80, symBinAddr: 0x100006EF0, symSize: 0xE0 }
  - { offsetInCU: 0x1052F, offset: 0x2038F, size: 0x8, addend: 0x0, symName: __ZNSt3__114__map_iteratorINS_15__tree_iteratorINS_12__value_typeINS_12basic_stringIcNS_11char_traitsIcEENS_9allocatorIcEEEENS_6vectorINS_4pairIS8_N5Lexer5TokenEEENS6_ISD_EEEEEEPNS_11__tree_nodeISG_PvEElEEEC1B7v160006ESL_, symObjAddr: 0x5B60, symBinAddr: 0x100006FD0, symSize: 0x30 }
  - { offsetInCU: 0x10565, offset: 0x203C5, size: 0x8, addend: 0x0, symName: __ZNSt3__16__treeINS_12__value_typeINS_12basic_stringIcNS_11char_traitsIcEENS_9allocatorIcEEEENS_6vectorINS_4pairIS7_N5Lexer5TokenEEENS5_ISC_EEEEEENS_19__map_value_compareIS7_SF_NS_4lessIS7_EELb1EEENS5_ISF_EEE13__lower_boundIS7_EENS_15__tree_iteratorISF_PNS_11__tree_nodeISF_PvEElEERKT_SR_PNS_15__tree_end_nodeIPNS_16__tree_node_baseISP_EEEE, symObjAddr: 0x5B90, symBinAddr: 0x100007000, symSize: 0x90 }
  - { offsetInCU: 0x105C3, offset: 0x20423, size: 0x8, addend: 0x0, symName: __ZNSt3__16__treeINS_12__value_typeINS_12basic_stringIcNS_11char_traitsIcEENS_9allocatorIcEEEENS_6vectorINS_4pairIS7_N5Lexer5TokenEEENS5_ISC_EEEEEENS_19__map_value_compareIS7_SF_NS_4lessIS7_EELb1EEENS5_ISF_EEE3endB7v160006Ev, symObjAddr: 0x5C50, symBinAddr: 0x1000070C0, symSize: 0x30 }
  - { offsetInCU: 0x105E7, offset: 0x20447, size: 0x8, addend: 0x0, symName: __ZNSt3__16__treeINS_12__value_typeINS_12basic_stringIcNS_11char_traitsIcEENS_9allocatorIcEEEENS_6vectorINS_4pairIS7_N5Lexer5TokenEEENS5_ISC_EEEEEENS_19__map_value_compareIS7_SF_NS_4lessIS7_EELb1EEENS5_ISF_EEE10value_compB7v160006Ev, symObjAddr: 0x5C80, symBinAddr: 0x1000070F0, symSize: 0x20 }
  - { offsetInCU: 0x1060B, offset: 0x2046B, size: 0x8, addend: 0x0, symName: __ZNKSt3__119__map_value_compareINS_12basic_stringIcNS_11char_traitsIcEENS_9allocatorIcEEEENS_12__value_typeIS6_NS_6vectorINS_4pairIS6_N5Lexer5TokenEEENS4_ISC_EEEEEENS_4lessIS6_EELb1EEclB7v160006ERKS6_RKSF_, symObjAddr: 0x5CA0, symBinAddr: 0x100007110, symSize: 0x50 }
  - { offsetInCU: 0x1064D, offset: 0x204AD, size: 0x8, addend: 0x0, symName: __ZNKSt3__115__tree_iteratorINS_12__value_typeINS_12basic_stringIcNS_11char_traitsIcEENS_9allocatorIcEEEENS_6vectorINS_4pairIS7_N5Lexer5TokenEEENS5_ISC_EEEEEEPNS_11__tree_nodeISF_PvEElEdeB7v160006Ev, symObjAddr: 0x5CF0, symBinAddr: 0x100007160, symSize: 0x20 }
  - { offsetInCU: 0x10671, offset: 0x204D1, size: 0x8, addend: 0x0, symName: __ZNKSt3__119__map_value_compareINS_12basic_stringIcNS_11char_traitsIcEENS_9allocatorIcEEEENS_12__value_typeIS6_NS_6vectorINS_4pairIS6_N5Lexer5TokenEEENS4_ISC_EEEEEENS_4lessIS6_EELb1EEclB7v160006ERKSF_RKS6_, symObjAddr: 0x5D10, symBinAddr: 0x100007180, symSize: 0x40 }
  - { offsetInCU: 0x106B3, offset: 0x20513, size: 0x8, addend: 0x0, symName: __ZNSt3__115__tree_iteratorINS_12__value_typeINS_12basic_stringIcNS_11char_traitsIcEENS_9allocatorIcEEEENS_6vectorINS_4pairIS7_N5Lexer5TokenEEENS5_ISC_EEEEEEPNS_11__tree_nodeISF_PvEElEC1B7v160006EPNS_15__tree_end_nodeIPNS_16__tree_node_baseISH_EEEE, symObjAddr: 0x5D50, symBinAddr: 0x1000071C0, symSize: 0x30 }
  - { offsetInCU: 0x106EA, offset: 0x2054A, size: 0x8, addend: 0x0, symName: __ZNKSt3__14lessINS_12basic_stringIcNS_11char_traitsIcEENS_9allocatorIcEEEEEclB7v160006ERKS6_S9_, symObjAddr: 0x5D80, symBinAddr: 0x1000071F0, symSize: 0x30 }
  - { offsetInCU: 0x1072C, offset: 0x2058C, size: 0x8, addend: 0x0, symName: __ZNKSt3__112__value_typeINS_12basic_stringIcNS_11char_traitsIcEENS_9allocatorIcEEEENS_6vectorINS_4pairIS6_N5Lexer5TokenEEENS4_ISB_EEEEE11__get_valueB7v160006Ev, symObjAddr: 0x5DB0, symBinAddr: 0x100007220, symSize: 0x10 }
  - { offsetInCU: 0x1074F, offset: 0x205AF, size: 0x8, addend: 0x0, symName: __ZNKSt3__112basic_stringIcNS_11char_traitsIcEENS_9allocatorIcEEE7compareB7v160006ERKS5_, symObjAddr: 0x5DF0, symBinAddr: 0x100007260, symSize: 0x40 }
  - { offsetInCU: 0x10785, offset: 0x205E5, size: 0x8, addend: 0x0, symName: __ZNKSt3__112basic_stringIcNS_11char_traitsIcEENS_9allocatorIcEEE7compareINS_17basic_string_viewIcS2_EEEENS_9enable_ifIXsr33__can_be_converted_to_string_viewIcS2_T_EE5valueEiE4typeERKSA_, symObjAddr: 0x5E30, symBinAddr: 0x1000072A0, symSize: 0x100 }
  - { offsetInCU: 0x10802, offset: 0x20662, size: 0x8, addend: 0x0, symName: __ZNKSt3__112basic_stringIcNS_11char_traitsIcEENS_9allocatorIcEEEcvNS_17basic_string_viewIcS2_EEB7v160006Ev, symObjAddr: 0x5F30, symBinAddr: 0x1000073A0, symSize: 0x50 }
  - { offsetInCU: 0x10826, offset: 0x20686, size: 0x8, addend: 0x0, symName: __ZNKSt3__117basic_string_viewIcNS_11char_traitsIcEEE4sizeB7v160006Ev, symObjAddr: 0x5F80, symBinAddr: 0x1000073F0, symSize: 0x20 }
  - { offsetInCU: 0x1084A, offset: 0x206AA, size: 0x8, addend: 0x0, symName: __ZNSt3__111char_traitsIcE7compareEPKcS3_m, symObjAddr: 0x5FA0, symBinAddr: 0x100007410, symSize: 0x70 }
  - { offsetInCU: 0x10888, offset: 0x206E8, size: 0x8, addend: 0x0, symName: __ZNKSt3__117basic_string_viewIcNS_11char_traitsIcEEE4dataB7v160006Ev, symObjAddr: 0x6010, symBinAddr: 0x100007480, symSize: 0x20 }
  - { offsetInCU: 0x108B6, offset: 0x20716, size: 0x8, addend: 0x0, symName: __ZNKSt3__16__lessImmEclB7v160006ERKmS3_, symObjAddr: 0x60E0, symBinAddr: 0x100007550, symSize: 0x30 }
  - { offsetInCU: 0x108F6, offset: 0x20756, size: 0x8, addend: 0x0, symName: __ZNSt3__117basic_string_viewIcNS_11char_traitsIcEEEC1B7v160006EPKcm, symObjAddr: 0x6110, symBinAddr: 0x100007580, symSize: 0x30 }
  - { offsetInCU: 0x1093C, offset: 0x2079C, size: 0x8, addend: 0x0, symName: __ZNSt3__117basic_string_viewIcNS_11char_traitsIcEEEC2B7v160006EPKcm, symObjAddr: 0x6140, symBinAddr: 0x1000075B0, symSize: 0x30 }
  - { offsetInCU: 0x10982, offset: 0x207E2, size: 0x8, addend: 0x0, symName: __ZNSt3__115__tree_iteratorINS_12__value_typeINS_12basic_stringIcNS_11char_traitsIcEENS_9allocatorIcEEEENS_6vectorINS_4pairIS7_N5Lexer5TokenEEENS5_ISC_EEEEEEPNS_11__tree_nodeISF_PvEElEC2B7v160006EPNS_15__tree_end_nodeIPNS_16__tree_node_baseISH_EEEE, symObjAddr: 0x6170, symBinAddr: 0x1000075E0, symSize: 0x20 }
  - { offsetInCU: 0x109B9, offset: 0x20819, size: 0x8, addend: 0x0, symName: __ZNSt3__117__compressed_pairImNS_19__map_value_compareINS_12basic_stringIcNS_11char_traitsIcEENS_9allocatorIcEEEENS_12__value_typeIS7_NS_6vectorINS_4pairIS7_N5Lexer5TokenEEENS5_ISD_EEEEEENS_4lessIS7_EELb1EEEE6secondB7v160006Ev, symObjAddr: 0x61C0, symBinAddr: 0x100007630, symSize: 0x20 }
  - { offsetInCU: 0x109DD, offset: 0x2083D, size: 0x8, addend: 0x0, symName: __ZNSt3__122__compressed_pair_elemINS_19__map_value_compareINS_12basic_stringIcNS_11char_traitsIcEENS_9allocatorIcEEEENS_12__value_typeIS7_NS_6vectorINS_4pairIS7_N5Lexer5TokenEEENS5_ISD_EEEEEENS_4lessIS7_EELb1EEELi1ELb1EE5__getB7v160006Ev, symObjAddr: 0x61E0, symBinAddr: 0x100007650, symSize: 0x10 }
  - { offsetInCU: 0x10A01, offset: 0x20861, size: 0x8, addend: 0x0, symName: __ZNKSt3__115__tree_iteratorINS_12__value_typeINS_12basic_stringIcNS_11char_traitsIcEENS_9allocatorIcEEEENS_6vectorINS_4pairIS7_N5Lexer5TokenEEENS5_ISC_EEEEEEPNS_11__tree_nodeISF_PvEElE8__get_npB7v160006Ev, symObjAddr: 0x61F0, symBinAddr: 0x100007660, symSize: 0x20 }
  - { offsetInCU: 0x10A25, offset: 0x20885, size: 0x8, addend: 0x0, symName: __ZNSt3__114__map_iteratorINS_15__tree_iteratorINS_12__value_typeINS_12basic_stringIcNS_11char_traitsIcEENS_9allocatorIcEEEENS_6vectorINS_4pairIS8_N5Lexer5TokenEEENS6_ISD_EEEEEEPNS_11__tree_nodeISG_PvEElEEEC2B7v160006ESL_, symObjAddr: 0x6210, symBinAddr: 0x100007680, symSize: 0x20 }
  - { offsetInCU: 0x10A5C, offset: 0x208BC, size: 0x8, addend: 0x0, symName: __ZNSt3__114pointer_traitsIPNS_4pairIKNS_12basic_stringIcNS_11char_traitsIcEENS_9allocatorIcEEEENS_6vectorINS1_IS7_N5Lexer5TokenEEENS5_ISC_EEEEEEE10pointer_toB7v160006ERSF_, symObjAddr: 0x6230, symBinAddr: 0x1000076A0, symSize: 0x10 }
  - { offsetInCU: 0x10A7E, offset: 0x208DE, size: 0x8, addend: 0x0, symName: __ZNKSt3__115__tree_iteratorINS_12__value_typeINS_12basic_stringIcNS_11char_traitsIcEENS_9allocatorIcEEEENS_6vectorINS_4pairIS7_N5Lexer5TokenEEENS5_ISC_EEEEEEPNS_11__tree_nodeISF_PvEElEptB7v160006Ev, symObjAddr: 0x6240, symBinAddr: 0x1000076B0, symSize: 0x30 }
  - { offsetInCU: 0x10AA2, offset: 0x20902, size: 0x8, addend: 0x0, symName: __ZNSt3__114pointer_traitsIPNS_12__value_typeINS_12basic_stringIcNS_11char_traitsIcEENS_9allocatorIcEEEENS_6vectorINS_4pairIS7_N5Lexer5TokenEEENS5_ISC_EEEEEEE10pointer_toB7v160006ERSF_, symObjAddr: 0x6270, symBinAddr: 0x1000076E0, symSize: 0x10 }
  - { offsetInCU: 0x10AC4, offset: 0x20924, size: 0x8, addend: 0x0, symName: __ZNSt3__16vectorINS_4pairINS_12basic_stringIcNS_11char_traitsIcEENS_9allocatorIcEEEEN5Lexer5TokenEEENS5_ISA_EEE11__make_iterB7v160006EPSA_, symObjAddr: 0x6280, symBinAddr: 0x1000076F0, symSize: 0x30 }
  - { offsetInCU: 0x10AF7, offset: 0x20957, size: 0x8, addend: 0x0, symName: __ZNSt3__111__wrap_iterIPNS_4pairINS_12basic_stringIcNS_11char_traitsIcEENS_9allocatorIcEEEEN5Lexer5TokenEEEEC1B7v160006EPKvSB_, symObjAddr: 0x62B0, symBinAddr: 0x100007720, symSize: 0x30 }
  - { offsetInCU: 0x10B3B, offset: 0x2099B, size: 0x8, addend: 0x0, symName: __ZNSt3__111__wrap_iterIPNS_4pairINS_12basic_stringIcNS_11char_traitsIcEENS_9allocatorIcEEEEN5Lexer5TokenEEEEC2B7v160006EPKvSB_, symObjAddr: 0x62E0, symBinAddr: 0x100007750, symSize: 0x20 }
  - { offsetInCU: 0x10B7F, offset: 0x209DF, size: 0x8, addend: 0x0, symName: __ZNKSt3__111__wrap_iterIPNS_4pairINS_12basic_stringIcNS_11char_traitsIcEENS_9allocatorIcEEEEN5Lexer5TokenEEEE4baseB7v160006Ev, symObjAddr: 0x6340, symBinAddr: 0x1000077B0, symSize: 0x20 }
  - { offsetInCU: 0x10BA3, offset: 0x20A03, size: 0x8, addend: 0x0, symName: __ZNSt3__111__wrap_iterIPNS_4pairINS_12basic_stringIcNS_11char_traitsIcEENS_9allocatorIcEEEEN5Lexer5TokenEEEEppB7v160006Ev, symObjAddr: 0x6360, symBinAddr: 0x1000077D0, symSize: 0x20 }
  - { offsetInCU: 0x10BC7, offset: 0x20A27, size: 0x8, addend: 0x0, symName: __ZNKSt3__16vectorIcNS_9allocatorIcEEE4sizeB7v160006Ev, symObjAddr: 0x6380, symBinAddr: 0x1000077F0, symSize: 0x20 }
  - { offsetInCU: 0x10BEB, offset: 0x20A4B, size: 0x8, addend: 0x0, symName: __ZNSt3__16vectorIcNS_9allocatorIcEEE7__clearB7v160006Ev, symObjAddr: 0x63A0, symBinAddr: 0x100007810, symSize: 0x20 }
  - { offsetInCU: 0x10C0F, offset: 0x20A6F, size: 0x8, addend: 0x0, symName: __ZNKSt3__16vectorIcNS_9allocatorIcEEE17__annotate_shrinkB7v160006Em, symObjAddr: 0x63C0, symBinAddr: 0x100007830, symSize: 0x90 }
  - { offsetInCU: 0x10C42, offset: 0x20AA2, size: 0x8, addend: 0x0, symName: __ZNSt3__16vectorIcNS_9allocatorIcEEE22__base_destruct_at_endB7v160006EPc, symObjAddr: 0x6460, symBinAddr: 0x1000078D0, symSize: 0x90 }
  - { offsetInCU: 0x10C84, offset: 0x20AE4, size: 0x8, addend: 0x0, symName: __ZNSt3__116allocator_traitsINS_9allocatorIcEEE7destroyB7v160006IcvEEvRS2_PT_, symObjAddr: 0x64F0, symBinAddr: 0x100007960, symSize: 0x30 }
  - { offsetInCU: 0x10CC0, offset: 0x20B20, size: 0x8, addend: 0x0, symName: __ZNSt3__16vectorIcNS_9allocatorIcEEE7__allocB7v160006Ev, symObjAddr: 0x6520, symBinAddr: 0x100007990, symSize: 0x20 }
  - { offsetInCU: 0x10CE4, offset: 0x20B44, size: 0x8, addend: 0x0, symName: __ZNSt3__19allocatorIcE7destroyB7v160006EPc, symObjAddr: 0x6540, symBinAddr: 0x1000079B0, symSize: 0x10 }
  - { offsetInCU: 0x10D16, offset: 0x20B76, size: 0x8, addend: 0x0, symName: __ZNSt3__117__compressed_pairIPcNS_9allocatorIcEEE6secondB7v160006Ev, symObjAddr: 0x6550, symBinAddr: 0x1000079C0, symSize: 0x20 }
  - { offsetInCU: 0x10D3A, offset: 0x20B9A, size: 0x8, addend: 0x0, symName: __ZNKSt3__16vectorIcNS_9allocatorIcEEE31__annotate_contiguous_containerB7v160006EPKvS5_S5_S5_, symObjAddr: 0x6570, symBinAddr: 0x1000079E0, symSize: 0x20 }
  - { offsetInCU: 0x10D8A, offset: 0x20BEA, size: 0x8, addend: 0x0, symName: __ZNKSt3__16vectorIcNS_9allocatorIcEEE4dataB7v160006Ev, symObjAddr: 0x6590, symBinAddr: 0x100007A00, symSize: 0x20 }
  - { offsetInCU: 0x10DAE, offset: 0x20C0E, size: 0x8, addend: 0x0, symName: __ZNKSt3__16vectorIcNS_9allocatorIcEEE8capacityB7v160006Ev, symObjAddr: 0x65B0, symBinAddr: 0x100007A20, symSize: 0x30 }
  - { offsetInCU: 0x10DD2, offset: 0x20C32, size: 0x8, addend: 0x0, symName: __ZNKSt3__16vectorIcNS_9allocatorIcEEE9__end_capB7v160006Ev, symObjAddr: 0x65E0, symBinAddr: 0x100007A50, symSize: 0x20 }
  - { offsetInCU: 0x10DF6, offset: 0x20C56, size: 0x8, addend: 0x0, symName: __ZNKSt3__117__compressed_pairIPcNS_9allocatorIcEEE5firstB7v160006Ev, symObjAddr: 0x6600, symBinAddr: 0x100007A70, symSize: 0x20 }
  - { offsetInCU: 0x10E1A, offset: 0x20C7A, size: 0x8, addend: 0x0, symName: __ZNKSt3__122__compressed_pair_elemIPcLi0ELb0EE5__getB7v160006Ev, symObjAddr: 0x6620, symBinAddr: 0x100007A90, symSize: 0x10 }
  - { offsetInCU: 0x10E3E, offset: 0x20C9E, size: 0x8, addend: 0x0, symName: __ZNSt3__13mapINS_12basic_stringIcNS_11char_traitsIcEENS_9allocatorIcEEEENS_6vectorINS_4pairIS6_N5Lexer5TokenEEENS4_ISB_EEEENS_4lessIS6_EENS4_INS8_IKS6_SD_EEEEE5beginB7v160006Ev, symObjAddr: 0x6630, symBinAddr: 0x100007AA0, symSize: 0x30 }
  - { offsetInCU: 0x10E62, offset: 0x20CC2, size: 0x8, addend: 0x0, symName: __ZNSt3__16vectorINS_4pairINS_12basic_stringIcNS_11char_traitsIcEENS_9allocatorIcEEEEN5Lexer5TokenEEENS5_ISA_EEE5clearB7v160006Ev, symObjAddr: 0x6660, symBinAddr: 0x100007AD0, symSize: 0x60 }
  - { offsetInCU: 0x10E95, offset: 0x20CF5, size: 0x8, addend: 0x0, symName: __ZNSt3__114__map_iteratorINS_15__tree_iteratorINS_12__value_typeINS_12basic_stringIcNS_11char_traitsIcEENS_9allocatorIcEEEENS_6vectorINS_4pairIS8_N5Lexer5TokenEEENS6_ISD_EEEEEEPNS_11__tree_nodeISG_PvEElEEEppB7v160006Ei, symObjAddr: 0x66C0, symBinAddr: 0x100007B30, symSize: 0x30 }
  - { offsetInCU: 0x10ED3, offset: 0x20D33, size: 0x8, addend: 0x0, symName: __ZNSt3__13mapINS_12basic_stringIcNS_11char_traitsIcEENS_9allocatorIcEEEENS_6vectorINS_4pairIS6_N5Lexer5TokenEEENS4_ISB_EEEENS_4lessIS6_EENS4_INS8_IKS6_SD_EEEEE5clearB7v160006Ev, symObjAddr: 0x66F0, symBinAddr: 0x100007B60, symSize: 0x20 }
  - { offsetInCU: 0x10EF7, offset: 0x20D57, size: 0x8, addend: 0x0, symName: __ZNSt3__16__treeINS_12__value_typeINS_12basic_stringIcNS_11char_traitsIcEENS_9allocatorIcEEEENS_6vectorINS_4pairIS7_N5Lexer5TokenEEENS5_ISC_EEEEEENS_19__map_value_compareIS7_SF_NS_4lessIS7_EELb1EEENS5_ISF_EEE5beginB7v160006Ev, symObjAddr: 0x6710, symBinAddr: 0x100007B80, symSize: 0x30 }
  - { offsetInCU: 0x10F1B, offset: 0x20D7B, size: 0x8, addend: 0x0, symName: __ZNKSt3__16vectorINS_4pairINS_12basic_stringIcNS_11char_traitsIcEENS_9allocatorIcEEEEN5Lexer5TokenEEENS5_ISA_EEE17__annotate_shrinkB7v160006Em, symObjAddr: 0x6740, symBinAddr: 0x100007BB0, symSize: 0xA0 }
  - { offsetInCU: 0x10F4E, offset: 0x20DAE, size: 0x8, addend: 0x0, symName: __ZNSt3__114__map_iteratorINS_15__tree_iteratorINS_12__value_typeINS_12basic_stringIcNS_11char_traitsIcEENS_9allocatorIcEEEENS_6vectorINS_4pairIS8_N5Lexer5TokenEEENS6_ISD_EEEEEEPNS_11__tree_nodeISG_PvEElEEEppB7v160006Ev, symObjAddr: 0x67F0, symBinAddr: 0x100007C60, symSize: 0x30 }
  - { offsetInCU: 0x10F72, offset: 0x20DD2, size: 0x8, addend: 0x0, symName: __ZNSt3__115__tree_iteratorINS_12__value_typeINS_12basic_stringIcNS_11char_traitsIcEENS_9allocatorIcEEEENS_6vectorINS_4pairIS7_N5Lexer5TokenEEENS5_ISC_EEEEEEPNS_11__tree_nodeISF_PvEElEppB7v160006Ev, symObjAddr: 0x6820, symBinAddr: 0x100007C90, symSize: 0x30 }
  - { offsetInCU: 0x10F96, offset: 0x20DF6, size: 0x8, addend: 0x0, symName: __ZNKSt3__116__tree_node_baseIPvE15__parent_unsafeB7v160006Ev, symObjAddr: 0x6950, symBinAddr: 0x100007DC0, symSize: 0x20 }
  - { offsetInCU: 0x10FB9, offset: 0x20E19, size: 0x8, addend: 0x0, symName: __ZNSt3__16__treeINS_12__value_typeINS_12basic_stringIcNS_11char_traitsIcEENS_9allocatorIcEEEENS_6vectorINS_4pairIS7_N5Lexer5TokenEEENS5_ISC_EEEEEENS_19__map_value_compareIS7_SF_NS_4lessIS7_EELb1EEENS5_ISF_EEE5clearEv, symObjAddr: 0x6970, symBinAddr: 0x100007DE0, symSize: 0x70 }
  - { offsetInCU: 0x10FE1, offset: 0x20E41, size: 0x8, addend: 0x0, symName: __ZNSt3__16__treeINS_12__value_typeINS_12basic_stringIcNS_11char_traitsIcEENS_9allocatorIcEEEENS_6vectorINS_4pairIS7_N5Lexer5TokenEEENS5_ISC_EEEEEENS_19__map_value_compareIS7_SF_NS_4lessIS7_EELb1EEENS5_ISF_EEE4sizeB7v160006Ev, symObjAddr: 0x69E0, symBinAddr: 0x100007E50, symSize: 0x20 }
  - { offsetInCU: 0x11005, offset: 0x20E65, size: 0x8, addend: 0x0, symName: __ZNSt3__117__compressed_pairImNS_19__map_value_compareINS_12basic_stringIcNS_11char_traitsIcEENS_9allocatorIcEEEENS_12__value_typeIS7_NS_6vectorINS_4pairIS7_N5Lexer5TokenEEENS5_ISD_EEEEEENS_4lessIS7_EELb1EEEE5firstB7v160006Ev, symObjAddr: 0x6A00, symBinAddr: 0x100007E70, symSize: 0x20 }
  - { offsetInCU: 0x11029, offset: 0x20E89, size: 0x8, addend: 0x0, symName: __ZNSt3__122__compressed_pair_elemImLi0ELb0EE5__getB7v160006Ev, symObjAddr: 0x6A20, symBinAddr: 0x100007E90, symSize: 0x10 }
  - { offsetInCU: 0x1104D, offset: 0x20EAD, size: 0x8, addend: 0x0, symName: __ZNSt3__16vectorIcNS_9allocatorIcEEED2B7v160006Ev, symObjAddr: 0x6A30, symBinAddr: 0x100007EA0, symSize: 0x30 }
  - { offsetInCU: 0x11075, offset: 0x20ED5, size: 0x8, addend: 0x0, symName: __ZNSt3__16vectorIcNS_9allocatorIcEEE16__destroy_vectorC1ERS3_, symObjAddr: 0x6A60, symBinAddr: 0x100007ED0, symSize: 0x30 }
  - { offsetInCU: 0x110AC, offset: 0x20F0C, size: 0x8, addend: 0x0, symName: __ZNSt3__16vectorIcNS_9allocatorIcEEE16__destroy_vectorclB7v160006Ev, symObjAddr: 0x6A90, symBinAddr: 0x100007F00, symSize: 0x90 }
  - { offsetInCU: 0x110D0, offset: 0x20F30, size: 0x8, addend: 0x0, symName: __ZNSt3__16vectorIcNS_9allocatorIcEEE16__destroy_vectorC2ERS3_, symObjAddr: 0x6B20, symBinAddr: 0x100007F90, symSize: 0x20 }
  - { offsetInCU: 0x11107, offset: 0x20F67, size: 0x8, addend: 0x0, symName: __ZNKSt3__16vectorIcNS_9allocatorIcEEE17__annotate_deleteB7v160006Ev, symObjAddr: 0x6B40, symBinAddr: 0x100007FB0, symSize: 0xA0 }
  - { offsetInCU: 0x1112B, offset: 0x20F8B, size: 0x8, addend: 0x0, symName: __ZNSt3__116allocator_traitsINS_9allocatorIcEEE10deallocateB7v160006ERS2_Pcm, symObjAddr: 0x6BF0, symBinAddr: 0x100008060, symSize: 0x30 }
  - { offsetInCU: 0x1116C, offset: 0x20FCC, size: 0x8, addend: 0x0, symName: __ZNSt3__19allocatorIcE10deallocateB7v160006EPcm, symObjAddr: 0x6C20, symBinAddr: 0x100008090, symSize: 0x70 }
  - { offsetInCU: 0x111AC, offset: 0x2100C, size: 0x8, addend: 0x0, symName: __ZNSt3__16vectorIcNS_9allocatorIcEEEC2B7v160006Ev, symObjAddr: 0x6C90, symBinAddr: 0x100008100, symSize: 0x50 }
  - { offsetInCU: 0x111D9, offset: 0x21039, size: 0x8, addend: 0x0, symName: __ZNSt3__117__compressed_pairIPcNS_9allocatorIcEEEC1B7v160006IDnNS_18__default_init_tagEEEOT_OT0_, symObjAddr: 0x6CE0, symBinAddr: 0x100008150, symSize: 0x30 }
  - { offsetInCU: 0x1122F, offset: 0x2108F, size: 0x8, addend: 0x0, symName: __ZNSt3__117__compressed_pairIPcNS_9allocatorIcEEEC2B7v160006IDnNS_18__default_init_tagEEEOT_OT0_, symObjAddr: 0x6D20, symBinAddr: 0x100008190, symSize: 0x40 }
  - { offsetInCU: 0x11285, offset: 0x210E5, size: 0x8, addend: 0x0, symName: __ZNSt3__122__compressed_pair_elemIPcLi0ELb0EEC2B7v160006IDnvEEOT_, symObjAddr: 0x6D60, symBinAddr: 0x1000081D0, symSize: 0x20 }
  - { offsetInCU: 0x112C5, offset: 0x21125, size: 0x8, addend: 0x0, symName: __ZNSt3__112basic_stringIcNS_11char_traitsIcEENS_9allocatorIcEEEC2B7v160006Ev, symObjAddr: 0x6D80, symBinAddr: 0x1000081F0, symSize: 0x40 }
  - { offsetInCU: 0x112ED, offset: 0x2114D, size: 0x8, addend: 0x0, symName: __ZNSt3__112basic_stringIcNS_11char_traitsIcEENS_9allocatorIcEEE14__default_initB7v160006Ev, symObjAddr: 0x6DC0, symBinAddr: 0x100008230, symSize: 0xC0 }
  - { offsetInCU: 0x1133D, offset: 0x2119D, size: 0x8, addend: 0x0, symName: __ZNSt3__16vectorIcNS_9allocatorIcEEE8__appendEm, symObjAddr: 0x6E80, symBinAddr: 0x1000082F0, symSize: 0x100 }
  - { offsetInCU: 0x11399, offset: 0x211F9, size: 0x8, addend: 0x0, symName: __ZNSt3__16vectorIcNS_9allocatorIcEEE17__destruct_at_endB7v160006EPc, symObjAddr: 0x6F80, symBinAddr: 0x1000083F0, symSize: 0x80 }
  - { offsetInCU: 0x113DB, offset: 0x2123B, size: 0x8, addend: 0x0, symName: __ZNSt3__16vectorIcNS_9allocatorIcEEE9__end_capB7v160006Ev, symObjAddr: 0x7000, symBinAddr: 0x100008470, symSize: 0x20 }
  - { offsetInCU: 0x113FE, offset: 0x2125E, size: 0x8, addend: 0x0, symName: __ZNSt3__16vectorIcNS_9allocatorIcEEE18__construct_at_endEm, symObjAddr: 0x7020, symBinAddr: 0x100008490, symSize: 0xD0 }
  - { offsetInCU: 0x11470, offset: 0x212D0, size: 0x8, addend: 0x0, symName: __ZNKSt3__16vectorIcNS_9allocatorIcEEE11__recommendB7v160006Em, symObjAddr: 0x70F0, symBinAddr: 0x100008560, symSize: 0xA0 }
  - { offsetInCU: 0x114C5, offset: 0x21325, size: 0x8, addend: 0x0, symName: __ZNSt3__114__split_bufferIcRNS_9allocatorIcEEEC1EmmS3_, symObjAddr: 0x7190, symBinAddr: 0x100008600, symSize: 0x40 }
  - { offsetInCU: 0x1151A, offset: 0x2137A, size: 0x8, addend: 0x0, symName: __ZNSt3__114__split_bufferIcRNS_9allocatorIcEEE18__construct_at_endEm, symObjAddr: 0x71D0, symBinAddr: 0x100008640, symSize: 0xC0 }
  - { offsetInCU: 0x1155C, offset: 0x213BC, size: 0x8, addend: 0x0, symName: __ZNSt3__114__split_bufferIcRNS_9allocatorIcEEED1Ev, symObjAddr: 0x73C0, symBinAddr: 0x100008830, symSize: 0x20 }
  - { offsetInCU: 0x11587, offset: 0x213E7, size: 0x8, addend: 0x0, symName: __ZNSt3__117__compressed_pairIPcNS_9allocatorIcEEE5firstB7v160006Ev, symObjAddr: 0x73E0, symBinAddr: 0x100008850, symSize: 0x20 }
  - { offsetInCU: 0x115AB, offset: 0x2140B, size: 0x8, addend: 0x0, symName: __ZNSt3__122__compressed_pair_elemIPcLi0ELb0EE5__getB7v160006Ev, symObjAddr: 0x7400, symBinAddr: 0x100008870, symSize: 0x10 }
  - { offsetInCU: 0x115E8, offset: 0x21448, size: 0x8, addend: 0x0, symName: __ZNSt3__16vectorIcNS_9allocatorIcEEE21_ConstructTransactionC1B7v160006ERS3_m, symObjAddr: 0x7410, symBinAddr: 0x100008880, symSize: 0x30 }
  - { offsetInCU: 0x1162E, offset: 0x2148E, size: 0x8, addend: 0x0, symName: __ZNSt3__116allocator_traitsINS_9allocatorIcEEE9constructB7v160006IcJEvEEvRS2_PT_DpOT0_, symObjAddr: 0x7440, symBinAddr: 0x1000088B0, symSize: 0x30 }
  - { offsetInCU: 0x1166F, offset: 0x214CF, size: 0x8, addend: 0x0, symName: __ZNSt3__16vectorIcNS_9allocatorIcEEE21_ConstructTransactionD1B7v160006Ev, symObjAddr: 0x7470, symBinAddr: 0x1000088E0, symSize: 0x20 }
  - { offsetInCU: 0x11697, offset: 0x214F7, size: 0x8, addend: 0x0, symName: __ZNSt3__16vectorIcNS_9allocatorIcEEE21_ConstructTransactionC2B7v160006ERS3_m, symObjAddr: 0x7490, symBinAddr: 0x100008900, symSize: 0x40 }
  - { offsetInCU: 0x116DD, offset: 0x2153D, size: 0x8, addend: 0x0, symName: __ZNSt3__19allocatorIcE9constructB7v160006IcJEEEvPT_DpOT0_, symObjAddr: 0x74D0, symBinAddr: 0x100008940, symSize: 0x20 }
  - { offsetInCU: 0x1171D, offset: 0x2157D, size: 0x8, addend: 0x0, symName: __ZNSt3__16vectorIcNS_9allocatorIcEEE21_ConstructTransactionD2B7v160006Ev, symObjAddr: 0x74F0, symBinAddr: 0x100008960, symSize: 0x20 }
  - { offsetInCU: 0x11744, offset: 0x215A4, size: 0x8, addend: 0x0, symName: __ZNKSt3__16vectorIcNS_9allocatorIcEEE8max_sizeEv, symObjAddr: 0x7510, symBinAddr: 0x100008980, symSize: 0x70 }
  - { offsetInCU: 0x1176C, offset: 0x215CC, size: 0x8, addend: 0x0, symName: __ZNKSt3__16vectorIcNS_9allocatorIcEEE20__throw_length_errorB7v160006Ev, symObjAddr: 0x7580, symBinAddr: 0x1000089F0, symSize: 0x20 }
  - { offsetInCU: 0x11790, offset: 0x215F0, size: 0x8, addend: 0x0, symName: __ZNKSt3__16vectorIcNS_9allocatorIcEEE7__allocB7v160006Ev, symObjAddr: 0x75D0, symBinAddr: 0x100008A40, symSize: 0x20 }
  - { offsetInCU: 0x117B4, offset: 0x21614, size: 0x8, addend: 0x0, symName: __ZNSt3__114numeric_limitsIlE3maxB7v160006Ev, symObjAddr: 0x75F0, symBinAddr: 0x100008A60, symSize: 0x10 }
  - { offsetInCU: 0x117C8, offset: 0x21628, size: 0x8, addend: 0x0, symName: __ZNKSt3__117__compressed_pairIPcNS_9allocatorIcEEE6secondB7v160006Ev, symObjAddr: 0x7600, symBinAddr: 0x100008A70, symSize: 0x20 }
  - { offsetInCU: 0x117EC, offset: 0x2164C, size: 0x8, addend: 0x0, symName: __ZNSt3__123__libcpp_numeric_limitsIlLb1EE3maxB7v160006Ev, symObjAddr: 0x7620, symBinAddr: 0x100008A90, symSize: 0x10 }
  - { offsetInCU: 0x11800, offset: 0x21660, size: 0x8, addend: 0x0, symName: __ZNSt3__114__split_bufferIcRNS_9allocatorIcEEEC2EmmS3_, symObjAddr: 0x7680, symBinAddr: 0x100008AF0, symSize: 0xC0 }
  - { offsetInCU: 0x11873, offset: 0x216D3, size: 0x8, addend: 0x0, symName: __ZNSt3__117__compressed_pairIPcRNS_9allocatorIcEEEC1B7v160006IDnS4_EEOT_OT0_, symObjAddr: 0x7740, symBinAddr: 0x100008BB0, symSize: 0x30 }
  - { offsetInCU: 0x118C9, offset: 0x21729, size: 0x8, addend: 0x0, symName: __ZNSt3__114__split_bufferIcRNS_9allocatorIcEEE7__allocB7v160006Ev, symObjAddr: 0x77B0, symBinAddr: 0x100008C20, symSize: 0x20 }
  - { offsetInCU: 0x118ED, offset: 0x2174D, size: 0x8, addend: 0x0, symName: __ZNSt3__114__split_bufferIcRNS_9allocatorIcEEE9__end_capB7v160006Ev, symObjAddr: 0x77D0, symBinAddr: 0x100008C40, symSize: 0x20 }
  - { offsetInCU: 0x11911, offset: 0x21771, size: 0x8, addend: 0x0, symName: __ZNSt3__117__compressed_pairIPcRNS_9allocatorIcEEEC2B7v160006IDnS4_EEOT_OT0_, symObjAddr: 0x77F0, symBinAddr: 0x100008C60, symSize: 0x40 }
  - { offsetInCU: 0x11967, offset: 0x217C7, size: 0x8, addend: 0x0, symName: __ZNSt3__122__compressed_pair_elemIRNS_9allocatorIcEELi1ELb0EEC2B7v160006IS3_vEEOT_, symObjAddr: 0x7830, symBinAddr: 0x100008CA0, symSize: 0x20 }
  - { offsetInCU: 0x119A7, offset: 0x21807, size: 0x8, addend: 0x0, symName: __ZNSt3__117__compressed_pairIPcRNS_9allocatorIcEEE6secondB7v160006Ev, symObjAddr: 0x7850, symBinAddr: 0x100008CC0, symSize: 0x20 }
  - { offsetInCU: 0x119CB, offset: 0x2182B, size: 0x8, addend: 0x0, symName: __ZNSt3__122__compressed_pair_elemIRNS_9allocatorIcEELi1ELb0EE5__getB7v160006Ev, symObjAddr: 0x7870, symBinAddr: 0x100008CE0, symSize: 0x20 }
  - { offsetInCU: 0x119EF, offset: 0x2184F, size: 0x8, addend: 0x0, symName: __ZNSt3__117__compressed_pairIPcRNS_9allocatorIcEEE5firstB7v160006Ev, symObjAddr: 0x7890, symBinAddr: 0x100008D00, symSize: 0x20 }
  - { offsetInCU: 0x11A1D, offset: 0x2187D, size: 0x8, addend: 0x0, symName: __ZNSt3__114__split_bufferIcRNS_9allocatorIcEEE21_ConstructTransactionC1B7v160006EPPcm, symObjAddr: 0x78B0, symBinAddr: 0x100008D20, symSize: 0x30 }
  - { offsetInCU: 0x11A61, offset: 0x218C1, size: 0x8, addend: 0x0, symName: __ZNSt3__114__split_bufferIcRNS_9allocatorIcEEE21_ConstructTransactionD1B7v160006Ev, symObjAddr: 0x78E0, symBinAddr: 0x100008D50, symSize: 0x20 }
  - { offsetInCU: 0x11A89, offset: 0x218E9, size: 0x8, addend: 0x0, symName: __ZNSt3__114__split_bufferIcRNS_9allocatorIcEEE21_ConstructTransactionC2B7v160006EPPcm, symObjAddr: 0x7900, symBinAddr: 0x100008D70, symSize: 0x40 }
  - { offsetInCU: 0x11ACD, offset: 0x2192D, size: 0x8, addend: 0x0, symName: __ZNSt3__114__split_bufferIcRNS_9allocatorIcEEE21_ConstructTransactionD2B7v160006Ev, symObjAddr: 0x7940, symBinAddr: 0x100008DB0, symSize: 0x20 }
  - { offsetInCU: 0x11AF5, offset: 0x21955, size: 0x8, addend: 0x0, symName: __ZNSt3__116reverse_iteratorIPcEC1B7v160006ES1_, symObjAddr: 0x7A80, symBinAddr: 0x100008EF0, symSize: 0x30 }
  - { offsetInCU: 0x11B2B, offset: 0x2198B, size: 0x8, addend: 0x0, symName: __ZNKSt3__116reverse_iteratorIPcE4baseB7v160006Ev, symObjAddr: 0x7AB0, symBinAddr: 0x100008F20, symSize: 0x20 }
  - { offsetInCU: 0x11B4F, offset: 0x219AF, size: 0x8, addend: 0x0, symName: __ZNKSt3__16vectorIcNS_9allocatorIcEEE14__annotate_newB7v160006Em, symObjAddr: 0x7B10, symBinAddr: 0x100008F80, symSize: 0xA0 }
  - { offsetInCU: 0x11B82, offset: 0x219E2, size: 0x8, addend: 0x0, symName: __ZNKSt3__116reverse_iteratorIPcEdeB7v160006Ev, symObjAddr: 0x7C40, symBinAddr: 0x1000090B0, symSize: 0x30 }
  - { offsetInCU: 0x11BB4, offset: 0x21A14, size: 0x8, addend: 0x0, symName: __ZNSt3__116reverse_iteratorIPcEppB7v160006Ev, symObjAddr: 0x7C70, symBinAddr: 0x1000090E0, symSize: 0x20 }
  - { offsetInCU: 0x11BDD, offset: 0x21A3D, size: 0x8, addend: 0x0, symName: __ZNSt3__119__to_address_helperINS_16reverse_iteratorIPcEEvE6__callB7v160006ERKS3_, symObjAddr: 0x7D10, symBinAddr: 0x100009180, symSize: 0x50 }
  - { offsetInCU: 0x11BFF, offset: 0x21A5F, size: 0x8, addend: 0x0, symName: __ZNKSt3__116reverse_iteratorIPcEptB7v160006Ev, symObjAddr: 0x7D60, symBinAddr: 0x1000091D0, symSize: 0x20 }
  - { offsetInCU: 0x11C46, offset: 0x21AA6, size: 0x8, addend: 0x0, symName: __ZNKSt3__111__move_loopINS_17_ClassicAlgPolicyEEclB7v160006INS_16reverse_iteratorIPcEES6_S6_EENS_4pairIT_T1_EES8_T0_S9_, symObjAddr: 0x8160, symBinAddr: 0x1000095D0, symSize: 0xA0 }
  - { offsetInCU: 0x11CB4, offset: 0x21B14, size: 0x8, addend: 0x0, symName: __ZNSt3__18_IterOpsINS_17_ClassicAlgPolicyEE11__iter_moveB7v160006IRNS_16reverse_iteratorIPcEEEENS_9enable_ifIXsr12is_referenceIDTdeclsr3stdE7declvalIRT_EEEEE5valueEDTclsr3stdE4movedeclsr3stdE7declvalISA_EEEEE4typeEOS9_, symObjAddr: 0x8350, symBinAddr: 0x1000097C0, symSize: 0x20 }
  - { offsetInCU: 0x11CDF, offset: 0x21B3F, size: 0x8, addend: 0x0, symName: __ZNSt3__18_IterOpsINS_17_ClassicAlgPolicyEE25__validate_iter_referenceB7v160006IRNS_16reverse_iteratorIPcEEEEvv, symObjAddr: 0x8370, symBinAddr: 0x1000097E0, symSize: 0x10 }
  - { offsetInCU: 0x11CFC, offset: 0x21B5C, size: 0x8, addend: 0x0, symName: __ZNSt3__118__unwrap_iter_implINS_16reverse_iteratorIPcEELb0EE8__unwrapB7v160006ES3_, symObjAddr: 0x8380, symBinAddr: 0x1000097F0, symSize: 0x20 }
  - { offsetInCU: 0x11D1E, offset: 0x21B7E, size: 0x8, addend: 0x0, symName: __ZNSt3__14pairINS_16reverse_iteratorIPcEES3_EC1B7v160006ERKS3_S6_, symObjAddr: 0x83A0, symBinAddr: 0x100009810, symSize: 0x30 }
  - { offsetInCU: 0x11D62, offset: 0x21BC2, size: 0x8, addend: 0x0, symName: __ZNSt3__14pairINS_16reverse_iteratorIPcEES3_EC2B7v160006ERKS3_S6_, symObjAddr: 0x83D0, symBinAddr: 0x100009840, symSize: 0x40 }
  - { offsetInCU: 0x11DA6, offset: 0x21C06, size: 0x8, addend: 0x0, symName: __ZNSt3__118__unwrap_iter_implINS_16reverse_iteratorIPcEELb0EE8__rewrapB7v160006ES3_S3_, symObjAddr: 0x8410, symBinAddr: 0x100009880, symSize: 0x30 }
  - { offsetInCU: 0x11DD3, offset: 0x21C33, size: 0x8, addend: 0x0, symName: __ZNSt3__116reverse_iteratorIPcEC2B7v160006ES1_, symObjAddr: 0x8440, symBinAddr: 0x1000098B0, symSize: 0x30 }
  - { offsetInCU: 0x11E09, offset: 0x21C69, size: 0x8, addend: 0x0, symName: __ZNSt3__114__split_bufferIcRNS_9allocatorIcEEED2Ev, symObjAddr: 0x8470, symBinAddr: 0x1000098E0, symSize: 0x60 }
  - { offsetInCU: 0x11E34, offset: 0x21C94, size: 0x8, addend: 0x0, symName: __ZNSt3__114__split_bufferIcRNS_9allocatorIcEEE5clearB7v160006Ev, symObjAddr: 0x84D0, symBinAddr: 0x100009940, symSize: 0x20 }
  - { offsetInCU: 0x11E58, offset: 0x21CB8, size: 0x8, addend: 0x0, symName: __ZNKSt3__114__split_bufferIcRNS_9allocatorIcEEE8capacityB7v160006Ev, symObjAddr: 0x84F0, symBinAddr: 0x100009960, symSize: 0x30 }
  - { offsetInCU: 0x11E7C, offset: 0x21CDC, size: 0x8, addend: 0x0, symName: __ZNSt3__114__split_bufferIcRNS_9allocatorIcEEE17__destruct_at_endB7v160006EPc, symObjAddr: 0x8520, symBinAddr: 0x100009990, symSize: 0x30 }
  - { offsetInCU: 0x11EAD, offset: 0x21D0D, size: 0x8, addend: 0x0, symName: __ZNSt3__114__split_bufferIcRNS_9allocatorIcEEE17__destruct_at_endB7v160006EPcNS_17integral_constantIbLb0EEE, symObjAddr: 0x8550, symBinAddr: 0x1000099C0, symSize: 0x80 }
  - { offsetInCU: 0x11EEE, offset: 0x21D4E, size: 0x8, addend: 0x0, symName: __ZNKSt3__114__split_bufferIcRNS_9allocatorIcEEE9__end_capB7v160006Ev, symObjAddr: 0x85D0, symBinAddr: 0x100009A40, symSize: 0x20 }
  - { offsetInCU: 0x11F12, offset: 0x21D72, size: 0x8, addend: 0x0, symName: __ZNKSt3__117__compressed_pairIPcRNS_9allocatorIcEEE5firstB7v160006Ev, symObjAddr: 0x85F0, symBinAddr: 0x100009A60, symSize: 0x20 }
  - { offsetInCU: 0x11F35, offset: 0x21D95, size: 0x8, addend: 0x0, symName: __ZNSt3__16vectorIcNS_9allocatorIcEEE27__invalidate_iterators_pastB7v160006EPc, symObjAddr: 0x8610, symBinAddr: 0x100009A80, symSize: 0x10 }
  - { offsetInCU: 0x11F6B, offset: 0x21DCB, size: 0x8, addend: 0x0, symName: __ZNSt3__13mapINS_12basic_stringIcNS_11char_traitsIcEENS_9allocatorIcEEEENS_6vectorINS_4pairIS6_N5Lexer5TokenEEENS4_ISB_EEEENS_4lessIS6_EENS4_INS8_IKS6_SD_EEEEEixERSG_, symObjAddr: 0x8620, symBinAddr: 0x100009A90, symSize: 0xB0 }
  - { offsetInCU: 0x11FEC, offset: 0x21E4C, size: 0x8, addend: 0x0, symName: __ZNSt3__16vectorINS_4pairINS_12basic_stringIcNS_11char_traitsIcEENS_9allocatorIcEEEEN5Lexer5TokenEEENS5_ISA_EEE9push_backB7v160006EOSA_, symObjAddr: 0x86D0, symBinAddr: 0x100009B40, symSize: 0x60 }
  - { offsetInCU: 0x12023, offset: 0x21E83, size: 0x8, addend: 0x0, symName: __ZNSt3__14pairINS_12basic_stringIcNS_11char_traitsIcEENS_9allocatorIcEEEEN5Lexer5TokenEEC1B7v160006ERKS6_RKS8_, symObjAddr: 0x8730, symBinAddr: 0x100009BA0, symSize: 0x30 }
  - { offsetInCU: 0x12066, offset: 0x21EC6, size: 0x8, addend: 0x0, symName: __ZNSt3__16vectorINS_4pairINS_12basic_stringIcNS_11char_traitsIcEENS_9allocatorIcEEEEN5Lexer5TokenEEENS5_ISA_EEEixB7v160006Em, symObjAddr: 0x8760, symBinAddr: 0x100009BD0, symSize: 0x20 }
  - { offsetInCU: 0x1209C, offset: 0x21EFC, size: 0x8, addend: 0x0, symName: __ZNSt3__16__treeINS_12__value_typeINS_12basic_stringIcNS_11char_traitsIcEENS_9allocatorIcEEEENS_6vectorINS_4pairIS7_N5Lexer5TokenEEENS5_ISC_EEEEEENS_19__map_value_compareIS7_SF_NS_4lessIS7_EELb1EEENS5_ISF_EEE12__find_equalIS7_EERPNS_16__tree_node_baseIPvEERPNS_15__tree_end_nodeISQ_EERKT_, symObjAddr: 0x8780, symBinAddr: 0x100009BF0, symSize: 0x180 }
  - { offsetInCU: 0x12108, offset: 0x21F68, size: 0x8, addend: 0x0, symName: __ZNSt3__13mapINS_12basic_stringIcNS_11char_traitsIcEENS_9allocatorIcEEEENS_6vectorINS_4pairIS6_N5Lexer5TokenEEENS4_ISB_EEEENS_4lessIS6_EENS4_INS8_IKS6_SD_EEEEE25__construct_node_with_keyERSG_, symObjAddr: 0x8900, symBinAddr: 0x100009D70, symSize: 0x140 }
  - { offsetInCU: 0x1215D, offset: 0x21FBD, size: 0x8, addend: 0x0, symName: __ZNSt3__16__treeINS_12__value_typeINS_12basic_stringIcNS_11char_traitsIcEENS_9allocatorIcEEEENS_6vectorINS_4pairIS7_N5Lexer5TokenEEENS5_ISC_EEEEEENS_19__map_value_compareIS7_SF_NS_4lessIS7_EELb1EEENS5_ISF_EEE16__insert_node_atEPNS_15__tree_end_nodeIPNS_16__tree_node_baseIPvEEEERSQ_SQ_, symObjAddr: 0x8A40, symBinAddr: 0x100009EB0, symSize: 0xC0 }
  - { offsetInCU: 0x121B2, offset: 0x22012, size: 0x8, addend: 0x0, symName: __ZNKSt3__110unique_ptrINS_11__tree_nodeINS_12__value_typeINS_12basic_stringIcNS_11char_traitsIcEENS_9allocatorIcEEEENS_6vectorINS_4pairIS8_N5Lexer5TokenEEENS6_ISD_EEEEEEPvEENS_21__map_node_destructorINS6_ISI_EEEEE3getB7v160006Ev, symObjAddr: 0x8B00, symBinAddr: 0x100009F70, symSize: 0x20 }
  - { offsetInCU: 0x121D6, offset: 0x22036, size: 0x8, addend: 0x0, symName: __ZNSt3__110unique_ptrINS_11__tree_nodeINS_12__value_typeINS_12basic_stringIcNS_11char_traitsIcEENS_9allocatorIcEEEENS_6vectorINS_4pairIS8_N5Lexer5TokenEEENS6_ISD_EEEEEEPvEENS_21__map_node_destructorINS6_ISI_EEEEE7releaseB7v160006Ev, symObjAddr: 0x8B20, symBinAddr: 0x100009F90, symSize: 0x40 }
  - { offsetInCU: 0x12209, offset: 0x22069, size: 0x8, addend: 0x0, symName: __ZNSt3__110unique_ptrINS_11__tree_nodeINS_12__value_typeINS_12basic_stringIcNS_11char_traitsIcEENS_9allocatorIcEEEENS_6vectorINS_4pairIS8_N5Lexer5TokenEEENS6_ISD_EEEEEEPvEENS_21__map_node_destructorINS6_ISI_EEEEED1B7v160006Ev, symObjAddr: 0x8B60, symBinAddr: 0x100009FD0, symSize: 0x20 }
  - { offsetInCU: 0x12231, offset: 0x22091, size: 0x8, addend: 0x0, symName: __ZNKSt3__16__treeINS_12__value_typeINS_12basic_stringIcNS_11char_traitsIcEENS_9allocatorIcEEEENS_6vectorINS_4pairIS7_N5Lexer5TokenEEENS5_ISC_EEEEEENS_19__map_value_compareIS7_SF_NS_4lessIS7_EELb1EEENS5_ISF_EEE10__root_ptrEv, symObjAddr: 0x8B80, symBinAddr: 0x100009FF0, symSize: 0x20 }
  - { offsetInCU: 0x12255, offset: 0x220B5, size: 0x8, addend: 0x0, symName: __ZNSt3__116allocator_traitsINS_9allocatorINS_11__tree_nodeINS_12__value_typeINS_12basic_stringIcNS_11char_traitsIcEENS1_IcEEEENS_6vectorINS_4pairIS8_N5Lexer5TokenEEENS1_ISD_EEEEEEPvEEEEE8allocateB7v160006ERSJ_m, symObjAddr: 0x8BA0, symBinAddr: 0x10000A010, symSize: 0x30 }
  - { offsetInCU: 0x12287, offset: 0x220E7, size: 0x8, addend: 0x0, symName: __ZNSt3__121__map_node_destructorINS_9allocatorINS_11__tree_nodeINS_12__value_typeINS_12basic_stringIcNS_11char_traitsIcEENS1_IcEEEENS_6vectorINS_4pairIS8_N5Lexer5TokenEEENS1_ISD_EEEEEEPvEEEEEC1B7v160006ERSJ_, symObjAddr: 0x8BD0, symBinAddr: 0x10000A040, symSize: 0x30 }
  - { offsetInCU: 0x122C3, offset: 0x22123, size: 0x8, addend: 0x0, symName: __ZNSt3__110unique_ptrINS_11__tree_nodeINS_12__value_typeINS_12basic_stringIcNS_11char_traitsIcEENS_9allocatorIcEEEENS_6vectorINS_4pairIS8_N5Lexer5TokenEEENS6_ISD_EEEEEEPvEENS_21__map_node_destructorINS6_ISI_EEEEEC1B7v160006ILb1EvEEPSI_NS_16__dependent_typeINS_27__unique_ptr_deleter_sfinaeISL_EEXT_EE20__good_rval_ref_typeE, symObjAddr: 0x8C00, symBinAddr: 0x10000A070, symSize: 0x30 }
  - { offsetInCU: 0x12317, offset: 0x22177, size: 0x8, addend: 0x0, symName: __ZNSt3__116allocator_traitsINS_9allocatorINS_11__tree_nodeINS_12__value_typeINS_12basic_stringIcNS_11char_traitsIcEENS1_IcEEEENS_6vectorINS_4pairIS8_N5Lexer5TokenEEENS1_ISD_EEEEEEPvEEEEE9constructB7v160006IKS8_JRSM_EvEEvRSJ_PT_DpOT0_, symObjAddr: 0x8C30, symBinAddr: 0x10000A0A0, symSize: 0x30 }
  - { offsetInCU: 0x1236D, offset: 0x221CD, size: 0x8, addend: 0x0, symName: __ZNKSt3__110unique_ptrINS_11__tree_nodeINS_12__value_typeINS_12basic_stringIcNS_11char_traitsIcEENS_9allocatorIcEEEENS_6vectorINS_4pairIS8_N5Lexer5TokenEEENS6_ISD_EEEEEEPvEENS_21__map_node_destructorINS6_ISI_EEEEEptB7v160006Ev, symObjAddr: 0x8C60, symBinAddr: 0x10000A0D0, symSize: 0x20 }
  - { offsetInCU: 0x12391, offset: 0x221F1, size: 0x8, addend: 0x0, symName: __ZNSt3__110unique_ptrINS_11__tree_nodeINS_12__value_typeINS_12basic_stringIcNS_11char_traitsIcEENS_9allocatorIcEEEENS_6vectorINS_4pairIS8_N5Lexer5TokenEEENS6_ISD_EEEEEEPvEENS_21__map_node_destructorINS6_ISI_EEEEE11get_deleterB7v160006Ev, symObjAddr: 0x8C80, symBinAddr: 0x10000A0F0, symSize: 0x20 }
  - { offsetInCU: 0x123BA, offset: 0x2221A, size: 0x8, addend: 0x0, symName: __ZNSt3__116allocator_traitsINS_9allocatorINS_11__tree_nodeINS_12__value_typeINS_12basic_stringIcNS_11char_traitsIcEENS1_IcEEEENS_6vectorINS_4pairIS8_N5Lexer5TokenEEENS1_ISD_EEEEEEPvEEEEE9constructB7v160006ISF_JEvEEvRSJ_PT_DpOT0_, symObjAddr: 0x8CA0, symBinAddr: 0x10000A110, symSize: 0x30 }
  - { offsetInCU: 0x123FB, offset: 0x2225B, size: 0x8, addend: 0x0, symName: __ZNSt3__19allocatorINS_11__tree_nodeINS_12__value_typeINS_12basic_stringIcNS_11char_traitsIcEENS0_IcEEEENS_6vectorINS_4pairIS7_N5Lexer5TokenEEENS0_ISC_EEEEEEPvEEE8allocateB7v160006Em, symObjAddr: 0x8CD0, symBinAddr: 0x10000A140, symSize: 0x80 }
  - { offsetInCU: 0x12437, offset: 0x22297, size: 0x8, addend: 0x0, symName: __ZNSt3__116allocator_traitsINS_9allocatorINS_11__tree_nodeINS_12__value_typeINS_12basic_stringIcNS_11char_traitsIcEENS1_IcEEEENS_6vectorINS_4pairIS8_N5Lexer5TokenEEENS1_ISD_EEEEEEPvEEEEE8max_sizeB7v160006ISJ_vEEmRKSJ_, symObjAddr: 0x8D50, symBinAddr: 0x10000A1C0, symSize: 0x20 }
  - { offsetInCU: 0x12464, offset: 0x222C4, size: 0x8, addend: 0x0, symName: __ZNKSt3__19allocatorINS_11__tree_nodeINS_12__value_typeINS_12basic_stringIcNS_11char_traitsIcEENS0_IcEEEENS_6vectorINS_4pairIS7_N5Lexer5TokenEEENS0_ISC_EEEEEEPvEEE8max_sizeB7v160006Ev, symObjAddr: 0x8D70, symBinAddr: 0x10000A1E0, symSize: 0x20 }
  - { offsetInCU: 0x12488, offset: 0x222E8, size: 0x8, addend: 0x0, symName: __ZNSt3__121__map_node_destructorINS_9allocatorINS_11__tree_nodeINS_12__value_typeINS_12basic_stringIcNS_11char_traitsIcEENS1_IcEEEENS_6vectorINS_4pairIS8_N5Lexer5TokenEEENS1_ISD_EEEEEEPvEEEEEC2B7v160006ERSJ_, symObjAddr: 0x8D90, symBinAddr: 0x10000A200, symSize: 0x30 }
  - { offsetInCU: 0x124BF, offset: 0x2231F, size: 0x8, addend: 0x0, symName: __ZNSt3__110unique_ptrINS_11__tree_nodeINS_12__value_typeINS_12basic_stringIcNS_11char_traitsIcEENS_9allocatorIcEEEENS_6vectorINS_4pairIS8_N5Lexer5TokenEEENS6_ISD_EEEEEEPvEENS_21__map_node_destructorINS6_ISI_EEEEEC2B7v160006ILb1EvEEPSI_NS_16__dependent_typeINS_27__unique_ptr_deleter_sfinaeISL_EEXT_EE20__good_rval_ref_typeE, symObjAddr: 0x8DC0, symBinAddr: 0x10000A230, symSize: 0x50 }
  - { offsetInCU: 0x1250E, offset: 0x2236E, size: 0x8, addend: 0x0, symName: __ZNSt3__117__compressed_pairIPNS_11__tree_nodeINS_12__value_typeINS_12basic_stringIcNS_11char_traitsIcEENS_9allocatorIcEEEENS_6vectorINS_4pairIS8_N5Lexer5TokenEEENS6_ISD_EEEEEEPvEENS_21__map_node_destructorINS6_ISI_EEEEEC1B7v160006IRSJ_SM_EEOT_OT0_, symObjAddr: 0x8E10, symBinAddr: 0x10000A280, symSize: 0x30 }
  - { offsetInCU: 0x12564, offset: 0x223C4, size: 0x8, addend: 0x0, symName: __ZNSt3__117__compressed_pairIPNS_11__tree_nodeINS_12__value_typeINS_12basic_stringIcNS_11char_traitsIcEENS_9allocatorIcEEEENS_6vectorINS_4pairIS8_N5Lexer5TokenEEENS6_ISD_EEEEEEPvEENS_21__map_node_destructorINS6_ISI_EEEEEC2B7v160006IRSJ_SM_EEOT_OT0_, symObjAddr: 0x8E40, symBinAddr: 0x10000A2B0, symSize: 0x40 }
  - { offsetInCU: 0x125BA, offset: 0x2241A, size: 0x8, addend: 0x0, symName: __ZNSt3__122__compressed_pair_elemIPNS_11__tree_nodeINS_12__value_typeINS_12basic_stringIcNS_11char_traitsIcEENS_9allocatorIcEEEENS_6vectorINS_4pairIS8_N5Lexer5TokenEEENS6_ISD_EEEEEEPvEELi0ELb0EEC2B7v160006IRSJ_vEEOT_, symObjAddr: 0x8E80, symBinAddr: 0x10000A2F0, symSize: 0x20 }
  - { offsetInCU: 0x125FA, offset: 0x2245A, size: 0x8, addend: 0x0, symName: __ZNSt3__122__compressed_pair_elemINS_21__map_node_destructorINS_9allocatorINS_11__tree_nodeINS_12__value_typeINS_12basic_stringIcNS_11char_traitsIcEENS2_IcEEEENS_6vectorINS_4pairIS9_N5Lexer5TokenEEENS2_ISE_EEEEEEPvEEEEEELi1ELb0EEC2B7v160006ISL_vEEOT_, symObjAddr: 0x8EA0, symBinAddr: 0x10000A310, symSize: 0x30 }
  - { offsetInCU: 0x1263A, offset: 0x2249A, size: 0x8, addend: 0x0, symName: __ZNSt3__19allocatorINS_11__tree_nodeINS_12__value_typeINS_12basic_stringIcNS_11char_traitsIcEENS0_IcEEEENS_6vectorINS_4pairIS7_N5Lexer5TokenEEENS0_ISC_EEEEEEPvEEE9constructB7v160006IKS7_JRSK_EEEvPT_DpOT0_, symObjAddr: 0x8ED0, symBinAddr: 0x10000A340, symSize: 0x30 }
  - { offsetInCU: 0x1268E, offset: 0x224EE, size: 0x8, addend: 0x0, symName: __ZNKSt3__117__compressed_pairIPNS_11__tree_nodeINS_12__value_typeINS_12basic_stringIcNS_11char_traitsIcEENS_9allocatorIcEEEENS_6vectorINS_4pairIS8_N5Lexer5TokenEEENS6_ISD_EEEEEEPvEENS_21__map_node_destructorINS6_ISI_EEEEE5firstB7v160006Ev, symObjAddr: 0x8F00, symBinAddr: 0x10000A370, symSize: 0x20 }
  - { offsetInCU: 0x126B2, offset: 0x22512, size: 0x8, addend: 0x0, symName: __ZNKSt3__122__compressed_pair_elemIPNS_11__tree_nodeINS_12__value_typeINS_12basic_stringIcNS_11char_traitsIcEENS_9allocatorIcEEEENS_6vectorINS_4pairIS8_N5Lexer5TokenEEENS6_ISD_EEEEEEPvEELi0ELb0EE5__getB7v160006Ev, symObjAddr: 0x8F20, symBinAddr: 0x10000A390, symSize: 0x10 }
  - { offsetInCU: 0x126D6, offset: 0x22536, size: 0x8, addend: 0x0, symName: __ZNSt3__117__compressed_pairIPNS_11__tree_nodeINS_12__value_typeINS_12basic_stringIcNS_11char_traitsIcEENS_9allocatorIcEEEENS_6vectorINS_4pairIS8_N5Lexer5TokenEEENS6_ISD_EEEEEEPvEENS_21__map_node_destructorINS6_ISI_EEEEE6secondB7v160006Ev, symObjAddr: 0x8F30, symBinAddr: 0x10000A3A0, symSize: 0x20 }
  - { offsetInCU: 0x126FA, offset: 0x2255A, size: 0x8, addend: 0x0, symName: __ZNSt3__122__compressed_pair_elemINS_21__map_node_destructorINS_9allocatorINS_11__tree_nodeINS_12__value_typeINS_12basic_stringIcNS_11char_traitsIcEENS2_IcEEEENS_6vectorINS_4pairIS9_N5Lexer5TokenEEENS2_ISE_EEEEEEPvEEEEEELi1ELb0EE5__getB7v160006Ev, symObjAddr: 0x8F50, symBinAddr: 0x10000A3C0, symSize: 0x10 }
  - { offsetInCU: 0x1271E, offset: 0x2257E, size: 0x8, addend: 0x0, symName: __ZNSt3__19allocatorINS_11__tree_nodeINS_12__value_typeINS_12basic_stringIcNS_11char_traitsIcEENS0_IcEEEENS_6vectorINS_4pairIS7_N5Lexer5TokenEEENS0_ISC_EEEEEEPvEEE9constructB7v160006ISE_JEEEvPT_DpOT0_, symObjAddr: 0x8F60, symBinAddr: 0x10000A3D0, symSize: 0x20 }
  - { offsetInCU: 0x1275E, offset: 0x225BE, size: 0x8, addend: 0x0, symName: __ZNSt3__16vectorINS_4pairINS_12basic_stringIcNS_11char_traitsIcEENS_9allocatorIcEEEEN5Lexer5TokenEEENS5_ISA_EEEC1B7v160006Ev, symObjAddr: 0x8F80, symBinAddr: 0x10000A3F0, symSize: 0x20 }
  - { offsetInCU: 0x12786, offset: 0x225E6, size: 0x8, addend: 0x0, symName: __ZNSt3__16vectorINS_4pairINS_12basic_stringIcNS_11char_traitsIcEENS_9allocatorIcEEEEN5Lexer5TokenEEENS5_ISA_EEEC2B7v160006Ev, symObjAddr: 0x8FA0, symBinAddr: 0x10000A410, symSize: 0x50 }
  - { offsetInCU: 0x127AE, offset: 0x2260E, size: 0x8, addend: 0x0, symName: __ZNSt3__117__compressed_pairIPNS_4pairINS_12basic_stringIcNS_11char_traitsIcEENS_9allocatorIcEEEEN5Lexer5TokenEEENS5_ISA_EEEC1B7v160006IDnNS_18__default_init_tagEEEOT_OT0_, symObjAddr: 0x8FF0, symBinAddr: 0x10000A460, symSize: 0x30 }
  - { offsetInCU: 0x12804, offset: 0x22664, size: 0x8, addend: 0x0, symName: __ZNSt3__117__compressed_pairIPNS_4pairINS_12basic_stringIcNS_11char_traitsIcEENS_9allocatorIcEEEEN5Lexer5TokenEEENS5_ISA_EEEC2B7v160006IDnNS_18__default_init_tagEEEOT_OT0_, symObjAddr: 0x9030, symBinAddr: 0x10000A4A0, symSize: 0x40 }
  - { offsetInCU: 0x1285A, offset: 0x226BA, size: 0x8, addend: 0x0, symName: __ZNSt3__122__compressed_pair_elemIPNS_4pairINS_12basic_stringIcNS_11char_traitsIcEENS_9allocatorIcEEEEN5Lexer5TokenEEELi0ELb0EEC2B7v160006IDnvEEOT_, symObjAddr: 0x9070, symBinAddr: 0x10000A4E0, symSize: 0x20 }
  - { offsetInCU: 0x1289A, offset: 0x226FA, size: 0x8, addend: 0x0, symName: __ZNSt3__122__compressed_pair_elemINS_9allocatorINS_4pairINS_12basic_stringIcNS_11char_traitsIcEENS1_IcEEEEN5Lexer5TokenEEEEELi1ELb1EEC2B7v160006ENS_18__default_init_tagE, symObjAddr: 0x9090, symBinAddr: 0x10000A500, symSize: 0x20 }
  - { offsetInCU: 0x128CD, offset: 0x2272D, size: 0x8, addend: 0x0, symName: __ZNSt3__19allocatorINS_4pairINS_12basic_stringIcNS_11char_traitsIcEENS0_IcEEEEN5Lexer5TokenEEEEC2B7v160006Ev, symObjAddr: 0x90B0, symBinAddr: 0x10000A520, symSize: 0x20 }
  - { offsetInCU: 0x128F5, offset: 0x22755, size: 0x8, addend: 0x0, symName: __ZNSt3__116__non_trivial_ifILb1ENS_9allocatorINS_4pairINS_12basic_stringIcNS_11char_traitsIcEENS1_IcEEEEN5Lexer5TokenEEEEEEC2B7v160006Ev, symObjAddr: 0x90D0, symBinAddr: 0x10000A540, symSize: 0x10 }
  - { offsetInCU: 0x1291D, offset: 0x2277D, size: 0x8, addend: 0x0, symName: __ZNSt3__116__tree_node_baseIPvE12__set_parentB7v160006EPS2_, symObjAddr: 0x94C0, symBinAddr: 0x10000A930, symSize: 0x20 }
  - { offsetInCU: 0x12950, offset: 0x227B0, size: 0x8, addend: 0x0, symName: __ZNSt3__117__compressed_pairIPNS_11__tree_nodeINS_12__value_typeINS_12basic_stringIcNS_11char_traitsIcEENS_9allocatorIcEEEENS_6vectorINS_4pairIS8_N5Lexer5TokenEEENS6_ISD_EEEEEEPvEENS_21__map_node_destructorINS6_ISI_EEEEE5firstB7v160006Ev, symObjAddr: 0x94E0, symBinAddr: 0x10000A950, symSize: 0x20 }
  - { offsetInCU: 0x12974, offset: 0x227D4, size: 0x8, addend: 0x0, symName: __ZNSt3__122__compressed_pair_elemIPNS_11__tree_nodeINS_12__value_typeINS_12basic_stringIcNS_11char_traitsIcEENS_9allocatorIcEEEENS_6vectorINS_4pairIS8_N5Lexer5TokenEEENS6_ISD_EEEEEEPvEELi0ELb0EE5__getB7v160006Ev, symObjAddr: 0x9500, symBinAddr: 0x10000A970, symSize: 0x10 }
  - { offsetInCU: 0x12998, offset: 0x227F8, size: 0x8, addend: 0x0, symName: __ZNSt3__110unique_ptrINS_11__tree_nodeINS_12__value_typeINS_12basic_stringIcNS_11char_traitsIcEENS_9allocatorIcEEEENS_6vectorINS_4pairIS8_N5Lexer5TokenEEENS6_ISD_EEEEEEPvEENS_21__map_node_destructorINS6_ISI_EEEEED2B7v160006Ev, symObjAddr: 0x9510, symBinAddr: 0x10000A980, symSize: 0x20 }
  - { offsetInCU: 0x129C0, offset: 0x22820, size: 0x8, addend: 0x0, symName: __ZNSt3__110unique_ptrINS_11__tree_nodeINS_12__value_typeINS_12basic_stringIcNS_11char_traitsIcEENS_9allocatorIcEEEENS_6vectorINS_4pairIS8_N5Lexer5TokenEEENS6_ISD_EEEEEEPvEENS_21__map_node_destructorINS6_ISI_EEEEE5resetB7v160006EPSI_, symObjAddr: 0x9530, symBinAddr: 0x10000A9A0, symSize: 0x70 }
  - { offsetInCU: 0x12A02, offset: 0x22862, size: 0x8, addend: 0x0, symName: __ZNSt3__121__map_node_destructorINS_9allocatorINS_11__tree_nodeINS_12__value_typeINS_12basic_stringIcNS_11char_traitsIcEENS1_IcEEEENS_6vectorINS_4pairIS8_N5Lexer5TokenEEENS1_ISD_EEEEEEPvEEEEEclB7v160006EPSI_, symObjAddr: 0x95A0, symBinAddr: 0x10000AA10, symSize: 0xD0 }
  - { offsetInCU: 0x12A35, offset: 0x22895, size: 0x8, addend: 0x0, symName: __ZNSt3__116allocator_traitsINS_9allocatorINS_11__tree_nodeINS_12__value_typeINS_12basic_stringIcNS_11char_traitsIcEENS1_IcEEEENS_6vectorINS_4pairIS8_N5Lexer5TokenEEENS1_ISD_EEEEEEPvEEEEE7destroyB7v160006ISF_vvEEvRSJ_PT_, symObjAddr: 0x9670, symBinAddr: 0x10000AAE0, symSize: 0x20 }
  - { offsetInCU: 0x12A6E, offset: 0x228CE, size: 0x8, addend: 0x0, symName: __ZNSt3__116allocator_traitsINS_9allocatorINS_11__tree_nodeINS_12__value_typeINS_12basic_stringIcNS_11char_traitsIcEENS1_IcEEEENS_6vectorINS_4pairIS8_N5Lexer5TokenEEENS1_ISD_EEEEEEPvEEEEE7destroyB7v160006IKS8_vvEEvRSJ_PT_, symObjAddr: 0x9690, symBinAddr: 0x10000AB00, symSize: 0x20 }
  - { offsetInCU: 0x12AA7, offset: 0x22907, size: 0x8, addend: 0x0, symName: __ZNSt3__16vectorINS_4pairINS_12basic_stringIcNS_11char_traitsIcEENS_9allocatorIcEEEEN5Lexer5TokenEEENS5_ISA_EEE9__end_capB7v160006Ev, symObjAddr: 0x96B0, symBinAddr: 0x10000AB20, symSize: 0x20 }
  - { offsetInCU: 0x12ACB, offset: 0x2292B, size: 0x8, addend: 0x0, symName: __ZNSt3__16vectorINS_4pairINS_12basic_stringIcNS_11char_traitsIcEENS_9allocatorIcEEEEN5Lexer5TokenEEENS5_ISA_EEE22__construct_one_at_endB7v160006IJSA_EEEvDpOT_, symObjAddr: 0x96D0, symBinAddr: 0x10000AB40, symSize: 0xA0 }
  - { offsetInCU: 0x12B17, offset: 0x22977, size: 0x8, addend: 0x0, symName: __ZNSt3__16vectorINS_4pairINS_12basic_stringIcNS_11char_traitsIcEENS_9allocatorIcEEEEN5Lexer5TokenEEENS5_ISA_EEE21__push_back_slow_pathISA_EEvOT_, symObjAddr: 0x9770, symBinAddr: 0x10000ABE0, symSize: 0xE0 }
  - { offsetInCU: 0x12B75, offset: 0x229D5, size: 0x8, addend: 0x0, symName: __ZNSt3__117__compressed_pairIPNS_4pairINS_12basic_stringIcNS_11char_traitsIcEENS_9allocatorIcEEEEN5Lexer5TokenEEENS5_ISA_EEE5firstB7v160006Ev, symObjAddr: 0x9850, symBinAddr: 0x10000ACC0, symSize: 0x20 }
  - { offsetInCU: 0x12B99, offset: 0x229F9, size: 0x8, addend: 0x0, symName: __ZNSt3__122__compressed_pair_elemIPNS_4pairINS_12basic_stringIcNS_11char_traitsIcEENS_9allocatorIcEEEEN5Lexer5TokenEEELi0ELb0EE5__getB7v160006Ev, symObjAddr: 0x9870, symBinAddr: 0x10000ACE0, symSize: 0x10 }
  - { offsetInCU: 0x12BD6, offset: 0x22A36, size: 0x8, addend: 0x0, symName: __ZNSt3__16vectorINS_4pairINS_12basic_stringIcNS_11char_traitsIcEENS_9allocatorIcEEEEN5Lexer5TokenEEENS5_ISA_EEE21_ConstructTransactionC1B7v160006ERSC_m, symObjAddr: 0x9880, symBinAddr: 0x10000ACF0, symSize: 0x30 }
  - { offsetInCU: 0x12C1C, offset: 0x22A7C, size: 0x8, addend: 0x0, symName: __ZNSt3__116allocator_traitsINS_9allocatorINS_4pairINS_12basic_stringIcNS_11char_traitsIcEENS1_IcEEEEN5Lexer5TokenEEEEEE9constructB7v160006ISA_JSA_EvEEvRSB_PT_DpOT0_, symObjAddr: 0x98B0, symBinAddr: 0x10000AD20, symSize: 0x30 }
  - { offsetInCU: 0x12C72, offset: 0x22AD2, size: 0x8, addend: 0x0, symName: __ZNSt3__16vectorINS_4pairINS_12basic_stringIcNS_11char_traitsIcEENS_9allocatorIcEEEEN5Lexer5TokenEEENS5_ISA_EEE21_ConstructTransactionD1B7v160006Ev, symObjAddr: 0x98E0, symBinAddr: 0x10000AD50, symSize: 0x20 }
  - { offsetInCU: 0x12C9A, offset: 0x22AFA, size: 0x8, addend: 0x0, symName: __ZNSt3__16vectorINS_4pairINS_12basic_stringIcNS_11char_traitsIcEENS_9allocatorIcEEEEN5Lexer5TokenEEENS5_ISA_EEE21_ConstructTransactionC2B7v160006ERSC_m, symObjAddr: 0x9900, symBinAddr: 0x10000AD70, symSize: 0x40 }
  - { offsetInCU: 0x12CE0, offset: 0x22B40, size: 0x8, addend: 0x0, symName: __ZNSt3__19allocatorINS_4pairINS_12basic_stringIcNS_11char_traitsIcEENS0_IcEEEEN5Lexer5TokenEEEE9constructB7v160006IS9_JS9_EEEvPT_DpOT0_, symObjAddr: 0x9940, symBinAddr: 0x10000ADB0, symSize: 0x30 }
  - { offsetInCU: 0x12D34, offset: 0x22B94, size: 0x8, addend: 0x0, symName: __ZNSt3__14pairINS_12basic_stringIcNS_11char_traitsIcEENS_9allocatorIcEEEEN5Lexer5TokenEEC1EOS9_, symObjAddr: 0x9970, symBinAddr: 0x10000ADE0, symSize: 0x30 }
  - { offsetInCU: 0x12D67, offset: 0x22BC7, size: 0x8, addend: 0x0, symName: __ZNSt3__14pairINS_12basic_stringIcNS_11char_traitsIcEENS_9allocatorIcEEEEN5Lexer5TokenEEC2EOS9_, symObjAddr: 0x99A0, symBinAddr: 0x10000AE10, symSize: 0x40 }
  - { offsetInCU: 0x12D9A, offset: 0x22BFA, size: 0x8, addend: 0x0, symName: __ZNSt3__16vectorINS_4pairINS_12basic_stringIcNS_11char_traitsIcEENS_9allocatorIcEEEEN5Lexer5TokenEEENS5_ISA_EEE21_ConstructTransactionD2B7v160006Ev, symObjAddr: 0x99E0, symBinAddr: 0x10000AE50, symSize: 0x20 }
  - { offsetInCU: 0x12DC1, offset: 0x22C21, size: 0x8, addend: 0x0, symName: __ZNKSt3__16vectorINS_4pairINS_12basic_stringIcNS_11char_traitsIcEENS_9allocatorIcEEEEN5Lexer5TokenEEENS5_ISA_EEE11__recommendB7v160006Em, symObjAddr: 0x9A00, symBinAddr: 0x10000AE70, symSize: 0xA0 }
  - { offsetInCU: 0x12E16, offset: 0x22C76, size: 0x8, addend: 0x0, symName: __ZNSt3__114__split_bufferINS_4pairINS_12basic_stringIcNS_11char_traitsIcEENS_9allocatorIcEEEEN5Lexer5TokenEEERNS5_ISA_EEEC1EmmSC_, symObjAddr: 0x9AA0, symBinAddr: 0x10000AF10, symSize: 0x40 }
  - { offsetInCU: 0x12E6B, offset: 0x22CCB, size: 0x8, addend: 0x0, symName: __ZNSt3__114__split_bufferINS_4pairINS_12basic_stringIcNS_11char_traitsIcEENS_9allocatorIcEEEEN5Lexer5TokenEEERNS5_ISA_EEED1Ev, symObjAddr: 0x9C10, symBinAddr: 0x10000B080, symSize: 0x20 }
  - { offsetInCU: 0x12E95, offset: 0x22CF5, size: 0x8, addend: 0x0, symName: __ZNKSt3__16vectorINS_4pairINS_12basic_stringIcNS_11char_traitsIcEENS_9allocatorIcEEEEN5Lexer5TokenEEENS5_ISA_EEE8max_sizeEv, symObjAddr: 0x9C30, symBinAddr: 0x10000B0A0, symSize: 0x70 }
  - { offsetInCU: 0x12EBD, offset: 0x22D1D, size: 0x8, addend: 0x0, symName: __ZNKSt3__16vectorINS_4pairINS_12basic_stringIcNS_11char_traitsIcEENS_9allocatorIcEEEEN5Lexer5TokenEEENS5_ISA_EEE20__throw_length_errorB7v160006Ev, symObjAddr: 0x9CA0, symBinAddr: 0x10000B110, symSize: 0x20 }
  - { offsetInCU: 0x12EEB, offset: 0x22D4B, size: 0x8, addend: 0x0, symName: __ZNSt3__116allocator_traitsINS_9allocatorINS_4pairINS_12basic_stringIcNS_11char_traitsIcEENS1_IcEEEEN5Lexer5TokenEEEEEE8max_sizeB7v160006ISB_vEEmRKSB_, symObjAddr: 0x9CC0, symBinAddr: 0x10000B130, symSize: 0x20 }
  - { offsetInCU: 0x12F18, offset: 0x22D78, size: 0x8, addend: 0x0, symName: __ZNKSt3__16vectorINS_4pairINS_12basic_stringIcNS_11char_traitsIcEENS_9allocatorIcEEEEN5Lexer5TokenEEENS5_ISA_EEE7__allocB7v160006Ev, symObjAddr: 0x9CE0, symBinAddr: 0x10000B150, symSize: 0x20 }
  - { offsetInCU: 0x12F3C, offset: 0x22D9C, size: 0x8, addend: 0x0, symName: __ZNKSt3__19allocatorINS_4pairINS_12basic_stringIcNS_11char_traitsIcEENS0_IcEEEEN5Lexer5TokenEEEE8max_sizeB7v160006Ev, symObjAddr: 0x9D00, symBinAddr: 0x10000B170, symSize: 0x20 }
  - { offsetInCU: 0x12F60, offset: 0x22DC0, size: 0x8, addend: 0x0, symName: __ZNKSt3__117__compressed_pairIPNS_4pairINS_12basic_stringIcNS_11char_traitsIcEENS_9allocatorIcEEEEN5Lexer5TokenEEENS5_ISA_EEE6secondB7v160006Ev, symObjAddr: 0x9D20, symBinAddr: 0x10000B190, symSize: 0x20 }
  - { offsetInCU: 0x12F84, offset: 0x22DE4, size: 0x8, addend: 0x0, symName: __ZNKSt3__122__compressed_pair_elemINS_9allocatorINS_4pairINS_12basic_stringIcNS_11char_traitsIcEENS1_IcEEEEN5Lexer5TokenEEEEELi1ELb1EE5__getB7v160006Ev, symObjAddr: 0x9D40, symBinAddr: 0x10000B1B0, symSize: 0x10 }
  - { offsetInCU: 0x12FA8, offset: 0x22E08, size: 0x8, addend: 0x0, symName: __ZNSt3__114__split_bufferINS_4pairINS_12basic_stringIcNS_11char_traitsIcEENS_9allocatorIcEEEEN5Lexer5TokenEEERNS5_ISA_EEEC2EmmSC_, symObjAddr: 0x9D50, symBinAddr: 0x10000B1C0, symSize: 0xD0 }
  - { offsetInCU: 0x1301B, offset: 0x22E7B, size: 0x8, addend: 0x0, symName: __ZNSt3__117__compressed_pairIPNS_4pairINS_12basic_stringIcNS_11char_traitsIcEENS_9allocatorIcEEEEN5Lexer5TokenEEERNS5_ISA_EEEC1B7v160006IDnSD_EEOT_OT0_, symObjAddr: 0x9E20, symBinAddr: 0x10000B290, symSize: 0x30 }
  - { offsetInCU: 0x13071, offset: 0x22ED1, size: 0x8, addend: 0x0, symName: __ZNSt3__114__split_bufferINS_4pairINS_12basic_stringIcNS_11char_traitsIcEENS_9allocatorIcEEEEN5Lexer5TokenEEERNS5_ISA_EEE7__allocB7v160006Ev, symObjAddr: 0x9E90, symBinAddr: 0x10000B300, symSize: 0x20 }
  - { offsetInCU: 0x13095, offset: 0x22EF5, size: 0x8, addend: 0x0, symName: __ZNSt3__114__split_bufferINS_4pairINS_12basic_stringIcNS_11char_traitsIcEENS_9allocatorIcEEEEN5Lexer5TokenEEERNS5_ISA_EEE9__end_capB7v160006Ev, symObjAddr: 0x9EB0, symBinAddr: 0x10000B320, symSize: 0x20 }
  - { offsetInCU: 0x130B9, offset: 0x22F19, size: 0x8, addend: 0x0, symName: __ZNSt3__117__compressed_pairIPNS_4pairINS_12basic_stringIcNS_11char_traitsIcEENS_9allocatorIcEEEEN5Lexer5TokenEEERNS5_ISA_EEEC2B7v160006IDnSD_EEOT_OT0_, symObjAddr: 0x9ED0, symBinAddr: 0x10000B340, symSize: 0x40 }
  - { offsetInCU: 0x1310F, offset: 0x22F6F, size: 0x8, addend: 0x0, symName: __ZNSt3__122__compressed_pair_elemIRNS_9allocatorINS_4pairINS_12basic_stringIcNS_11char_traitsIcEENS1_IcEEEEN5Lexer5TokenEEEEELi1ELb0EEC2B7v160006ISC_vEEOT_, symObjAddr: 0x9F10, symBinAddr: 0x10000B380, symSize: 0x20 }
  - { offsetInCU: 0x1314F, offset: 0x22FAF, size: 0x8, addend: 0x0, symName: __ZNSt3__19allocatorINS_4pairINS_12basic_stringIcNS_11char_traitsIcEENS0_IcEEEEN5Lexer5TokenEEEE8allocateB7v160006Em, symObjAddr: 0x9F30, symBinAddr: 0x10000B3A0, symSize: 0x80 }
  - { offsetInCU: 0x13181, offset: 0x22FE1, size: 0x8, addend: 0x0, symName: __ZNSt3__117__compressed_pairIPNS_4pairINS_12basic_stringIcNS_11char_traitsIcEENS_9allocatorIcEEEEN5Lexer5TokenEEERNS5_ISA_EEE6secondB7v160006Ev, symObjAddr: 0x9FB0, symBinAddr: 0x10000B420, symSize: 0x20 }
  - { offsetInCU: 0x131A5, offset: 0x23005, size: 0x8, addend: 0x0, symName: __ZNSt3__122__compressed_pair_elemIRNS_9allocatorINS_4pairINS_12basic_stringIcNS_11char_traitsIcEENS1_IcEEEEN5Lexer5TokenEEEEELi1ELb0EE5__getB7v160006Ev, symObjAddr: 0x9FD0, symBinAddr: 0x10000B440, symSize: 0x20 }
  - { offsetInCU: 0x131C9, offset: 0x23029, size: 0x8, addend: 0x0, symName: __ZNSt3__117__compressed_pairIPNS_4pairINS_12basic_stringIcNS_11char_traitsIcEENS_9allocatorIcEEEEN5Lexer5TokenEEERNS5_ISA_EEE5firstB7v160006Ev, symObjAddr: 0x9FF0, symBinAddr: 0x10000B460, symSize: 0x20 }
  - { offsetInCU: 0x131ED, offset: 0x2304D, size: 0x8, addend: 0x0, symName: __ZNSt3__116reverse_iteratorIPNS_4pairINS_12basic_stringIcNS_11char_traitsIcEENS_9allocatorIcEEEEN5Lexer5TokenEEEEC1B7v160006ESB_, symObjAddr: 0xA1A0, symBinAddr: 0x10000B610, symSize: 0x30 }
  - { offsetInCU: 0x13223, offset: 0x23083, size: 0x8, addend: 0x0, symName: __ZNKSt3__116reverse_iteratorIPNS_4pairINS_12basic_stringIcNS_11char_traitsIcEENS_9allocatorIcEEEEN5Lexer5TokenEEEE4baseB7v160006Ev, symObjAddr: 0xA1D0, symBinAddr: 0x10000B640, symSize: 0x20 }
  - { offsetInCU: 0x13247, offset: 0x230A7, size: 0x8, addend: 0x0, symName: __ZNKSt3__16vectorINS_4pairINS_12basic_stringIcNS_11char_traitsIcEENS_9allocatorIcEEEEN5Lexer5TokenEEENS5_ISA_EEE14__annotate_newB7v160006Em, symObjAddr: 0xA230, symBinAddr: 0x10000B6A0, symSize: 0xB0 }
  - { offsetInCU: 0x1327A, offset: 0x230DA, size: 0x8, addend: 0x0, symName: __ZNSt3__129_AllocatorDestroyRangeReverseINS_9allocatorINS_4pairINS_12basic_stringIcNS_11char_traitsIcEENS1_IcEEEEN5Lexer5TokenEEEEENS_16reverse_iteratorIPSA_EEEC1B7v160006ERSB_RSE_SH_, symObjAddr: 0xA340, symBinAddr: 0x10000B7B0, symSize: 0x40 }
  - { offsetInCU: 0x132CF, offset: 0x2312F, size: 0x8, addend: 0x0, symName: __ZNSt3__116allocator_traitsINS_9allocatorINS_4pairINS_12basic_stringIcNS_11char_traitsIcEENS1_IcEEEEN5Lexer5TokenEEEEEE9constructB7v160006ISA_JRKSA_EvEEvRSB_PT_DpOT0_, symObjAddr: 0xA3C0, symBinAddr: 0x10000B830, symSize: 0x30 }
  - { offsetInCU: 0x13325, offset: 0x23185, size: 0x8, addend: 0x0, symName: __ZNKSt3__116reverse_iteratorIPNS_4pairINS_12basic_stringIcNS_11char_traitsIcEENS_9allocatorIcEEEEN5Lexer5TokenEEEEdeB7v160006Ev, symObjAddr: 0xA410, symBinAddr: 0x10000B880, symSize: 0x30 }
  - { offsetInCU: 0x13357, offset: 0x231B7, size: 0x8, addend: 0x0, symName: __ZNSt3__116reverse_iteratorIPNS_4pairINS_12basic_stringIcNS_11char_traitsIcEENS_9allocatorIcEEEEN5Lexer5TokenEEEEppB7v160006Ev, symObjAddr: 0xA440, symBinAddr: 0x10000B8B0, symSize: 0x20 }
  - { offsetInCU: 0x1337B, offset: 0x231DB, size: 0x8, addend: 0x0, symName: __ZNSt3__128__exception_guard_exceptionsINS_29_AllocatorDestroyRangeReverseINS_9allocatorINS_4pairINS_12basic_stringIcNS_11char_traitsIcEENS2_IcEEEEN5Lexer5TokenEEEEENS_16reverse_iteratorIPSB_EEEEE10__completeB7v160006Ev, symObjAddr: 0xA460, symBinAddr: 0x10000B8D0, symSize: 0x20 }
  - { offsetInCU: 0x1339F, offset: 0x231FF, size: 0x8, addend: 0x0, symName: __ZNSt3__128__exception_guard_exceptionsINS_29_AllocatorDestroyRangeReverseINS_9allocatorINS_4pairINS_12basic_stringIcNS_11char_traitsIcEENS2_IcEEEEN5Lexer5TokenEEEEENS_16reverse_iteratorIPSB_EEEEED1B7v160006Ev, symObjAddr: 0xA480, symBinAddr: 0x10000B8F0, symSize: 0x20 }
  - { offsetInCU: 0x133C7, offset: 0x23227, size: 0x8, addend: 0x0, symName: __ZNSt3__128__exception_guard_exceptionsINS_29_AllocatorDestroyRangeReverseINS_9allocatorINS_4pairINS_12basic_stringIcNS_11char_traitsIcEENS2_IcEEEEN5Lexer5TokenEEEEENS_16reverse_iteratorIPSB_EEEEEC1B7v160006ESG_, symObjAddr: 0xA4A0, symBinAddr: 0x10000B910, symSize: 0x40 }
  - { offsetInCU: 0x133FD, offset: 0x2325D, size: 0x8, addend: 0x0, symName: __ZNSt3__128__exception_guard_exceptionsINS_29_AllocatorDestroyRangeReverseINS_9allocatorINS_4pairINS_12basic_stringIcNS_11char_traitsIcEENS2_IcEEEEN5Lexer5TokenEEEEENS_16reverse_iteratorIPSB_EEEEEC2B7v160006ESG_, symObjAddr: 0xA4E0, symBinAddr: 0x10000B950, symSize: 0x30 }
  - { offsetInCU: 0x13433, offset: 0x23293, size: 0x8, addend: 0x0, symName: __ZNSt3__129_AllocatorDestroyRangeReverseINS_9allocatorINS_4pairINS_12basic_stringIcNS_11char_traitsIcEENS1_IcEEEEN5Lexer5TokenEEEEENS_16reverse_iteratorIPSA_EEEC2B7v160006ERSB_RSE_SH_, symObjAddr: 0xA510, symBinAddr: 0x10000B980, symSize: 0x40 }
  - { offsetInCU: 0x13488, offset: 0x232E8, size: 0x8, addend: 0x0, symName: __ZNSt3__19allocatorINS_4pairINS_12basic_stringIcNS_11char_traitsIcEENS0_IcEEEEN5Lexer5TokenEEEE9constructB7v160006IS9_JRKS9_EEEvPT_DpOT0_, symObjAddr: 0xA550, symBinAddr: 0x10000B9C0, symSize: 0x30 }
  - { offsetInCU: 0x134DC, offset: 0x2333C, size: 0x8, addend: 0x0, symName: __ZNSt3__14pairINS_12basic_stringIcNS_11char_traitsIcEENS_9allocatorIcEEEEN5Lexer5TokenEEC1ERKS9_, symObjAddr: 0xA580, symBinAddr: 0x10000B9F0, symSize: 0x30 }
  - { offsetInCU: 0x1350F, offset: 0x2336F, size: 0x8, addend: 0x0, symName: __ZNSt3__14pairINS_12basic_stringIcNS_11char_traitsIcEENS_9allocatorIcEEEEN5Lexer5TokenEEC2ERKS9_, symObjAddr: 0xA5B0, symBinAddr: 0x10000BA20, symSize: 0x40 }
  - { offsetInCU: 0x13547, offset: 0x233A7, size: 0x8, addend: 0x0, symName: __ZNSt3__119__to_address_helperINS_16reverse_iteratorIPNS_4pairINS_12basic_stringIcNS_11char_traitsIcEENS_9allocatorIcEEEEN5Lexer5TokenEEEEEvE6__callB7v160006ERKSD_, symObjAddr: 0xA5F0, symBinAddr: 0x10000BA60, symSize: 0x50 }
  - { offsetInCU: 0x13569, offset: 0x233C9, size: 0x8, addend: 0x0, symName: __ZNKSt3__116reverse_iteratorIPNS_4pairINS_12basic_stringIcNS_11char_traitsIcEENS_9allocatorIcEEEEN5Lexer5TokenEEEEptB7v160006Ev, symObjAddr: 0xA640, symBinAddr: 0x10000BAB0, symSize: 0x20 }
  - { offsetInCU: 0x1358D, offset: 0x233ED, size: 0x8, addend: 0x0, symName: __ZNSt3__128__exception_guard_exceptionsINS_29_AllocatorDestroyRangeReverseINS_9allocatorINS_4pairINS_12basic_stringIcNS_11char_traitsIcEENS2_IcEEEEN5Lexer5TokenEEEEENS_16reverse_iteratorIPSB_EEEEED2B7v160006Ev, symObjAddr: 0xA660, symBinAddr: 0x10000BAD0, symSize: 0x30 }
  - { offsetInCU: 0x135B5, offset: 0x23415, size: 0x8, addend: 0x0, symName: __ZNKSt3__129_AllocatorDestroyRangeReverseINS_9allocatorINS_4pairINS_12basic_stringIcNS_11char_traitsIcEENS1_IcEEEEN5Lexer5TokenEEEEENS_16reverse_iteratorIPSA_EEEclB7v160006Ev, symObjAddr: 0xA690, symBinAddr: 0x10000BB00, symSize: 0xF0 }
  - { offsetInCU: 0x135DA, offset: 0x2343A, size: 0x8, addend: 0x0, symName: __ZNSt3__116reverse_iteratorINS0_IPNS_4pairINS_12basic_stringIcNS_11char_traitsIcEENS_9allocatorIcEEEEN5Lexer5TokenEEEEEEC1B7v160006ESC_, symObjAddr: 0xA7F0, symBinAddr: 0x10000BC60, symSize: 0x30 }
  - { offsetInCU: 0x13610, offset: 0x23470, size: 0x8, addend: 0x0, symName: __ZNSt3__116reverse_iteratorINS0_IPNS_4pairINS_12basic_stringIcNS_11char_traitsIcEENS_9allocatorIcEEEEN5Lexer5TokenEEEEEEppB7v160006Ev, symObjAddr: 0xA890, symBinAddr: 0x10000BD00, symSize: 0x30 }
  - { offsetInCU: 0x13634, offset: 0x23494, size: 0x8, addend: 0x0, symName: __ZNKSt3__116reverse_iteratorINS0_IPNS_4pairINS_12basic_stringIcNS_11char_traitsIcEENS_9allocatorIcEEEEN5Lexer5TokenEEEEEE4baseB7v160006Ev, symObjAddr: 0xA8C0, symBinAddr: 0x10000BD30, symSize: 0x20 }
  - { offsetInCU: 0x1365D, offset: 0x234BD, size: 0x8, addend: 0x0, symName: __ZNSt3__119__to_address_helperINS_16reverse_iteratorINS1_IPNS_4pairINS_12basic_stringIcNS_11char_traitsIcEENS_9allocatorIcEEEEN5Lexer5TokenEEEEEEEvE6__callB7v160006ERKSE_, symObjAddr: 0xA8E0, symBinAddr: 0x10000BD50, symSize: 0x50 }
  - { offsetInCU: 0x1367F, offset: 0x234DF, size: 0x8, addend: 0x0, symName: __ZNKSt3__116reverse_iteratorINS0_IPNS_4pairINS_12basic_stringIcNS_11char_traitsIcEENS_9allocatorIcEEEEN5Lexer5TokenEEEEEEptB7v160006Ev, symObjAddr: 0xA930, symBinAddr: 0x10000BDA0, symSize: 0x20 }
  - { offsetInCU: 0x136A3, offset: 0x23503, size: 0x8, addend: 0x0, symName: __ZNKSt3__116reverse_iteratorINS0_IPNS_4pairINS_12basic_stringIcNS_11char_traitsIcEENS_9allocatorIcEEEEN5Lexer5TokenEEEEEEdeB7v160006Ev, symObjAddr: 0xA950, symBinAddr: 0x10000BDC0, symSize: 0x40 }
  - { offsetInCU: 0x136D5, offset: 0x23535, size: 0x8, addend: 0x0, symName: __ZNSt3__116reverse_iteratorIPNS_4pairINS_12basic_stringIcNS_11char_traitsIcEENS_9allocatorIcEEEEN5Lexer5TokenEEEEmmB7v160006Ev, symObjAddr: 0xA990, symBinAddr: 0x10000BE00, symSize: 0x20 }
  - { offsetInCU: 0x136F9, offset: 0x23559, size: 0x8, addend: 0x0, symName: __ZNSt3__116reverse_iteratorINS0_IPNS_4pairINS_12basic_stringIcNS_11char_traitsIcEENS_9allocatorIcEEEEN5Lexer5TokenEEEEEEC2B7v160006ESC_, symObjAddr: 0xA9B0, symBinAddr: 0x10000BE20, symSize: 0x40 }
  - { offsetInCU: 0x1372F, offset: 0x2358F, size: 0x8, addend: 0x0, symName: __ZNSt3__116reverse_iteratorIPNS_4pairINS_12basic_stringIcNS_11char_traitsIcEENS_9allocatorIcEEEEN5Lexer5TokenEEEEC2B7v160006ESB_, symObjAddr: 0xA9F0, symBinAddr: 0x10000BE60, symSize: 0x30 }
  - { offsetInCU: 0x13765, offset: 0x235C5, size: 0x8, addend: 0x0, symName: __ZNSt3__114__split_bufferINS_4pairINS_12basic_stringIcNS_11char_traitsIcEENS_9allocatorIcEEEEN5Lexer5TokenEEERNS5_ISA_EEED2Ev, symObjAddr: 0xAA20, symBinAddr: 0x10000BE90, symSize: 0x60 }
  - { offsetInCU: 0x13790, offset: 0x235F0, size: 0x8, addend: 0x0, symName: __ZNSt3__114__split_bufferINS_4pairINS_12basic_stringIcNS_11char_traitsIcEENS_9allocatorIcEEEEN5Lexer5TokenEEERNS5_ISA_EEE5clearB7v160006Ev, symObjAddr: 0xAA80, symBinAddr: 0x10000BEF0, symSize: 0x20 }
  - { offsetInCU: 0x137B4, offset: 0x23614, size: 0x8, addend: 0x0, symName: __ZNKSt3__114__split_bufferINS_4pairINS_12basic_stringIcNS_11char_traitsIcEENS_9allocatorIcEEEEN5Lexer5TokenEEERNS5_ISA_EEE8capacityB7v160006Ev, symObjAddr: 0xAAA0, symBinAddr: 0x10000BF10, symSize: 0x30 }
  - { offsetInCU: 0x137D8, offset: 0x23638, size: 0x8, addend: 0x0, symName: __ZNSt3__114__split_bufferINS_4pairINS_12basic_stringIcNS_11char_traitsIcEENS_9allocatorIcEEEEN5Lexer5TokenEEERNS5_ISA_EEE17__destruct_at_endB7v160006EPSA_, symObjAddr: 0xAAD0, symBinAddr: 0x10000BF40, symSize: 0x30 }
  - { offsetInCU: 0x13809, offset: 0x23669, size: 0x8, addend: 0x0, symName: __ZNSt3__114__split_bufferINS_4pairINS_12basic_stringIcNS_11char_traitsIcEENS_9allocatorIcEEEEN5Lexer5TokenEEERNS5_ISA_EEE17__destruct_at_endB7v160006EPSA_NS_17integral_constantIbLb0EEE, symObjAddr: 0xAB00, symBinAddr: 0x10000BF70, symSize: 0x80 }
  - { offsetInCU: 0x1384A, offset: 0x236AA, size: 0x8, addend: 0x0, symName: __ZNKSt3__114__split_bufferINS_4pairINS_12basic_stringIcNS_11char_traitsIcEENS_9allocatorIcEEEEN5Lexer5TokenEEERNS5_ISA_EEE9__end_capB7v160006Ev, symObjAddr: 0xAB80, symBinAddr: 0x10000BFF0, symSize: 0x20 }
  - { offsetInCU: 0x1386E, offset: 0x236CE, size: 0x8, addend: 0x0, symName: __ZNKSt3__117__compressed_pairIPNS_4pairINS_12basic_stringIcNS_11char_traitsIcEENS_9allocatorIcEEEEN5Lexer5TokenEEERNS5_ISA_EEE5firstB7v160006Ev, symObjAddr: 0xABA0, symBinAddr: 0x10000C010, symSize: 0x20 }
  - { offsetInCU: 0x13892, offset: 0x236F2, size: 0x8, addend: 0x0, symName: __ZNSt3__14pairINS_12basic_stringIcNS_11char_traitsIcEENS_9allocatorIcEEEEN5Lexer5TokenEEC2B7v160006ERKS6_RKS8_, symObjAddr: 0xABC0, symBinAddr: 0x10000C030, symSize: 0x38 }
  - { offsetInCU: 0x7C08, offset: 0x2B4E1, size: 0x8, addend: 0x0, symName: __ZNSt3__124__put_character_sequenceB7v160006IcNS_11char_traitsIcEEEERNS_13basic_ostreamIT_T0_EES7_PKS4_m, symObjAddr: 0xF050, symBinAddr: 0x100019280, symSize: 0x1F0 }
  - { offsetInCU: 0xA268, offset: 0x2DB41, size: 0x8, addend: 0x0, symName: __ZNSt3__1lsB7v160006INS_11char_traitsIcEEEERNS_13basic_ostreamIcT_EES6_c, symObjAddr: 0x8440, symBinAddr: 0x100014220, symSize: 0x30 }
  - { offsetInCU: 0xA2AE, offset: 0x2DB87, size: 0x8, addend: 0x0, symName: __ZNSt3__1lsB7v160006INS_11char_traitsIcEEEERNS_13basic_ostreamIcT_EES6_PKc, symObjAddr: 0x8470, symBinAddr: 0x100014250, symSize: 0x40 }
  - { offsetInCU: 0xA2F4, offset: 0x2DBCD, size: 0x8, addend: 0x0, symName: __ZNSt3__1lsB7v160006IcNS_11char_traitsIcEENS_9allocatorIcEEEERNS_13basic_ostreamIT_T0_EES9_RKNS_12basic_stringIS6_S7_T1_EE, symObjAddr: 0x85C0, symBinAddr: 0x1000143A0, symSize: 0x50 }
  - { offsetInCU: 0xA34C, offset: 0x2DC25, size: 0x8, addend: 0x0, symName: __ZNSt3__119__allocate_at_leastB7v160006INS_9allocatorI4TreeEEEENS_19__allocation_resultINS_16allocator_traitsIT_E7pointerEEERS6_m, symObjAddr: 0x9240, symBinAddr: 0x100014D10, symSize: 0x40 }
  - { offsetInCU: 0xA38F, offset: 0x2DC68, size: 0x8, addend: 0x0, symName: __ZNSt3__142__uninitialized_allocator_move_if_noexceptB7v160006INS_9allocatorI4TreeEENS_16reverse_iteratorIPS2_EES6_S6_EET2_RT_T0_T1_S7_, symObjAddr: 0x9560, symBinAddr: 0x100014EF0, symSize: 0x190 }
  - { offsetInCU: 0xA42E, offset: 0x2DD07, size: 0x8, addend: 0x0, symName: __ZNSt3__14swapB7v160006IP4TreeEEvRT_S4_, symObjAddr: 0x9740, symBinAddr: 0x1000150D0, symSize: 0x40 }
  - { offsetInCU: 0xA47F, offset: 0x2DD58, size: 0x8, addend: 0x0, symName: __ZNSt3__125__debug_db_invalidate_allB7v160006INS_6vectorI4TreeNS_9allocatorIS2_EEEEEEvPT_, symObjAddr: 0x9830, symBinAddr: 0x1000151C0, symSize: 0x10 }
  - { offsetInCU: 0xA4B0, offset: 0x2DD89, size: 0x8, addend: 0x0, symName: __ZNSt3__122__make_exception_guardB7v160006INS_29_AllocatorDestroyRangeReverseINS_9allocatorI4TreeEENS_16reverse_iteratorIPS3_EEEEEENS_28__exception_guard_exceptionsIT_EESA_, symObjAddr: 0x9880, symBinAddr: 0x1000151D0, symSize: 0x60 }
  - { offsetInCU: 0xA4E5, offset: 0x2DDBE, size: 0x8, addend: 0x0, symName: __ZNSt3__1neB7v160006IP4TreeS2_EEbRKNS_16reverse_iteratorIT_EERKNS3_IT0_EE, symObjAddr: 0x9920, symBinAddr: 0x100015270, symSize: 0x40 }
  - { offsetInCU: 0xA531, offset: 0x2DE0A, size: 0x8, addend: 0x0, symName: __ZNSt3__112__to_addressB7v160006INS_16reverse_iteratorIP4TreeEEvEENS_5decayIDTclsr19__to_address_helperIT_EE6__callclsr3stdE7declvalIRKS6_EEEEE4typeES8_, symObjAddr: 0x9960, symBinAddr: 0x1000152B0, symSize: 0x20 }
  - { offsetInCU: 0xA591, offset: 0x2DE6A, size: 0x8, addend: 0x0, symName: __ZNSt3__119__allocator_destroyB7v160006INS_9allocatorI4TreeEENS_16reverse_iteratorINS4_IPS2_EEEES7_EEvRT_T0_T1_, symObjAddr: 0x9C50, symBinAddr: 0x1000155A0, symSize: 0x70 }
  - { offsetInCU: 0xA5F4, offset: 0x2DECD, size: 0x8, addend: 0x0, symName: __ZNSt3__1neB7v160006INS_16reverse_iteratorIP4TreeEES4_EEbRKNS1_IT_EERKNS1_IT0_EE, symObjAddr: 0x9CF0, symBinAddr: 0x100015640, symSize: 0x50 }
  - { offsetInCU: 0xA640, offset: 0x2DF19, size: 0x8, addend: 0x0, symName: __ZNSt3__112__to_addressB7v160006INS_16reverse_iteratorINS1_IP4TreeEEEEvEENS_5decayIDTclsr19__to_address_helperIT_EE6__callclsr3stdE7declvalIRKS7_EEEEE4typeES9_, symObjAddr: 0x9D70, symBinAddr: 0x100015690, symSize: 0x20 }
  - { offsetInCU: 0xA6A0, offset: 0x2DF79, size: 0x8, addend: 0x0, symName: __ZNSt3__119__debug_db_insert_cB7v160006INS_6vectorI4TreeNS_9allocatorIS2_EEEEEEvPT_, symObjAddr: 0xA350, symBinAddr: 0x100015B20, symSize: 0x10 }
  - { offsetInCU: 0xA6D1, offset: 0x2DFAA, size: 0x8, addend: 0x0, symName: __ZNSt3__1neB7v160006ERKNS_16__deque_iteratorI4TreePS1_RS1_PS2_lLl512EEES7_, symObjAddr: 0xAB30, symBinAddr: 0x100016130, symSize: 0x30 }
  - { offsetInCU: 0xA70E, offset: 0x2DFE7, size: 0x8, addend: 0x0, symName: __ZNSt3__1eqB7v160006ERKNS_16__deque_iteratorI4TreePS1_RS1_PS2_lLl512EEES7_, symObjAddr: 0xAD60, symBinAddr: 0x100016360, symSize: 0x30 }
  - { offsetInCU: 0xA74B, offset: 0x2E024, size: 0x8, addend: 0x0, symName: __ZNSt3__112__to_addressB7v160006IP4TreeEEPT_S4_, symObjAddr: 0xB010, symBinAddr: 0x100016600, symSize: 0x10 }
  - { offsetInCU: 0xAB55, offset: 0x2E42E, size: 0x8, addend: 0x0, symName: __ZNSt3__14swapB7v160006IPP4TreeEEvRT_S5_, symObjAddr: 0xDB00, symBinAddr: 0x100017D50, symSize: 0x40 }
  - { offsetInCU: 0xABA6, offset: 0x2E47F, size: 0x8, addend: 0x0, symName: __ZNSt3__14moveB7v160006IPP4TreeS3_EET0_T_S5_S4_, symObjAddr: 0xDBC0, symBinAddr: 0x100017E10, symSize: 0x40 }
  - { offsetInCU: 0xAC1E, offset: 0x2E4F7, size: 0x8, addend: 0x0, symName: __ZNSt3__16__moveB7v160006INS_17_ClassicAlgPolicyEPP4TreeS4_S4_EENS_4pairIT0_T2_EES6_T1_S7_, symObjAddr: 0xDD70, symBinAddr: 0x100017FC0, symSize: 0x40 }
  - { offsetInCU: 0xAC8A, offset: 0x2E563, size: 0x8, addend: 0x0, symName: __ZNSt3__123__dispatch_copy_or_moveB7v160006INS_17_ClassicAlgPolicyENS_11__move_loopIS1_EENS_14__move_trivialEPP4TreeS7_S7_EENS_4pairIT2_T4_EES9_T3_SA_, symObjAddr: 0xDDB0, symBinAddr: 0x100018000, symSize: 0x60 }
  - { offsetInCU: 0xAD08, offset: 0x2E5E1, size: 0x8, addend: 0x0, symName: __ZNSt3__121__unwrap_and_dispatchB7v160006INS_10__overloadINS_11__move_loopINS_17_ClassicAlgPolicyEEENS_14__move_trivialEEEPP4TreeS9_S9_Li0EEENS_4pairIT0_T2_EESB_T1_SC_, symObjAddr: 0xDE10, symBinAddr: 0x100018060, symSize: 0xB0 }
  - { offsetInCU: 0xAD97, offset: 0x2E670, size: 0x8, addend: 0x0, symName: __ZNSt3__114__unwrap_rangeB7v160006IPP4TreeS3_EENS_4pairIT0_S5_EET_S7_, symObjAddr: 0xDEC0, symBinAddr: 0x100018110, symSize: 0x50 }
  - { offsetInCU: 0xAED6, offset: 0x2E7AF, size: 0x8, addend: 0x0, symName: __ZNSt3__113__unwrap_iterB7v160006IPP4TreeNS_18__unwrap_iter_implIS3_Lb1EEELi0EEEDTclsrT0_8__unwrapclsr3stdE7declvalIT_EEEES7_, symObjAddr: 0xDF50, symBinAddr: 0x1000181A0, symSize: 0x20 }
  - { offsetInCU: 0xAF1A, offset: 0x2E7F3, size: 0x8, addend: 0x0, symName: __ZNSt3__19make_pairB7v160006IPP4TreeS3_EENS_4pairINS_18__unwrap_ref_decayIT_E4typeENS5_IT0_E4typeEEEOS6_OS9_, symObjAddr: 0xDF70, symBinAddr: 0x1000181C0, symSize: 0x30 }
  - { offsetInCU: 0xAF69, offset: 0x2E842, size: 0x8, addend: 0x0, symName: __ZNSt3__114__rewrap_rangeB7v160006IPP4TreeS3_EET_S4_T0_, symObjAddr: 0xDFA0, symBinAddr: 0x1000181F0, symSize: 0x30 }
  - { offsetInCU: 0xAFB5, offset: 0x2E88E, size: 0x8, addend: 0x0, symName: __ZNSt3__113__rewrap_iterB7v160006IPP4TreeS3_NS_18__unwrap_iter_implIS3_Lb1EEEEET_S6_T0_, symObjAddr: 0xDFD0, symBinAddr: 0x100018220, symSize: 0x50 }
  - { offsetInCU: 0xB00A, offset: 0x2E8E3, size: 0x8, addend: 0x0, symName: __ZNSt3__119__copy_trivial_implB7v160006IP4TreeS2_EENS_4pairIPT_PT0_EES5_S5_S7_, symObjAddr: 0xE020, symBinAddr: 0x100018270, symSize: 0x70 }
  - { offsetInCU: 0xB072, offset: 0x2E94B, size: 0x8, addend: 0x0, symName: __ZNSt3__19make_pairB7v160006IRPP4TreeS3_EENS_4pairINS_18__unwrap_ref_decayIT_E4typeENS6_IT0_E4typeEEEOS7_OSA_, symObjAddr: 0xE090, symBinAddr: 0x1000182E0, symSize: 0x30 }
  - { offsetInCU: 0xB114, offset: 0x2E9ED, size: 0x8, addend: 0x0, symName: __ZNSt3__18distanceB7v160006INS_13move_iteratorIPP4TreeEEEENS_15iterator_traitsIT_E15difference_typeES7_S7_, symObjAddr: 0xE190, symBinAddr: 0x1000183E0, symSize: 0x40 }
  - { offsetInCU: 0xB157, offset: 0x2EA30, size: 0x8, addend: 0x0, symName: __ZNSt3__110__distanceB7v160006INS_13move_iteratorIPP4TreeEEEENS_15iterator_traitsIT_E15difference_typeES7_S7_NS_26random_access_iterator_tagE, symObjAddr: 0xE2B0, symBinAddr: 0x100018500, symSize: 0x30 }
  - { offsetInCU: 0xB1A5, offset: 0x2EA7E, size: 0x8, addend: 0x0, symName: __ZNSt3__1miB7v160006IPP4TreeS3_EENS_13move_iteratorIT_E15difference_typeERKS6_RKNS4_IT0_EE, symObjAddr: 0xE2E0, symBinAddr: 0x100018530, symSize: 0x40 }
  - { offsetInCU: 0xB1F4, offset: 0x2EACD, size: 0x8, addend: 0x0, symName: __ZNSt3__113move_backwardB7v160006IPP4TreeS3_EET0_T_S5_S4_, symObjAddr: 0xE440, symBinAddr: 0x100018690, symSize: 0x40 }
  - { offsetInCU: 0xB24E, offset: 0x2EB27, size: 0x8, addend: 0x0, symName: __ZNSt3__115__move_backwardB7v160006INS_17_ClassicAlgPolicyEPP4TreeS4_S4_EENS_4pairIT0_T2_EES6_T1_S7_, symObjAddr: 0xE480, symBinAddr: 0x1000186D0, symSize: 0x40 }
  - { offsetInCU: 0xB2BA, offset: 0x2EB93, size: 0x8, addend: 0x0, symName: __ZNSt3__123__dispatch_copy_or_moveB7v160006INS_17_ClassicAlgPolicyENS_20__move_backward_loopIS1_EENS_23__move_backward_trivialEPP4TreeS7_S7_EENS_4pairIT2_T4_EES9_T3_SA_, symObjAddr: 0xE4C0, symBinAddr: 0x100018710, symSize: 0x60 }
  - { offsetInCU: 0xB338, offset: 0x2EC11, size: 0x8, addend: 0x0, symName: __ZNSt3__121__unwrap_and_dispatchB7v160006INS_10__overloadINS_20__move_backward_loopINS_17_ClassicAlgPolicyEEENS_23__move_backward_trivialEEEPP4TreeS9_S9_Li0EEENS_4pairIT0_T2_EESB_T1_SC_, symObjAddr: 0xE520, symBinAddr: 0x100018770, symSize: 0xB0 }
  - { offsetInCU: 0xB40D, offset: 0x2ECE6, size: 0x8, addend: 0x0, symName: __ZNSt3__128__copy_backward_trivial_implB7v160006IP4TreeS2_EENS_4pairIPT_PT0_EES5_S5_S7_, symObjAddr: 0xE610, symBinAddr: 0x100018860, symSize: 0x80 }
  - { offsetInCU: 0xB475, offset: 0x2ED4E, size: 0x8, addend: 0x0, symName: __ZNSt3__19make_pairB7v160006IRPP4TreeS4_EENS_4pairINS_18__unwrap_ref_decayIT_E4typeENS6_IT0_E4typeEEEOS7_OSA_, symObjAddr: 0xE690, symBinAddr: 0x1000188E0, symSize: 0x30 }
  - { offsetInCU: 0xB4C4, offset: 0x2ED9D, size: 0x8, addend: 0x0, symName: __ZNSt3__119__allocate_at_leastB7v160006INS_9allocatorIP4TreeEEEENS_19__allocation_resultINS_16allocator_traitsIT_E7pointerEEERS7_m, symObjAddr: 0xE7C0, symBinAddr: 0x100018A10, symSize: 0x40 }
  - { offsetInCU: 0xB507, offset: 0x2EDE0, size: 0x8, addend: 0x0, symName: __ZNSt3__116__pad_and_outputB7v160006IcNS_11char_traitsIcEEEENS_19ostreambuf_iteratorIT_T0_EES6_PKS4_S8_S8_RNS_8ios_baseES4_, symObjAddr: 0xF260, symBinAddr: 0x100019490, symSize: 0x220 }
  - { offsetInCU: 0xB5D8, offset: 0x2EEB1, size: 0x8, addend: 0x0, symName: __ZNSt3__19use_facetB7v160006INS_5ctypeIcEEEERKT_RKNS_6localeE, symObjAddr: 0xF7F0, symBinAddr: 0x100019A20, symSize: 0x30 }
  - { offsetInCU: 0xC4BF, offset: 0x2FD98, size: 0x8, addend: 0x0, symName: __ZNSt3__16vectorI4TreeNS_9allocatorIS1_EEE26__swap_out_circular_bufferERNS_14__split_bufferIS1_RS3_EE, symObjAddr: 0x8C20, symBinAddr: 0x1000149A0, symSize: 0x130 }
  - { offsetInCU: 0xE56E, offset: 0x31E47, size: 0x8, addend: 0x0, symName: __Z15throwPaserErroriiN5Lexer5TokenEPKc, symObjAddr: 0x0, symBinAddr: 0x10000C070, symSize: 0x1140 }
  - { offsetInCU: 0xE5D4, offset: 0x31EAD, size: 0x8, addend: 0x0, symName: __ZNSt3__112basic_stringIcNS_11char_traitsIcEENS_9allocatorIcEEEpLB7v160006ERKS5_, symObjAddr: 0x1190, symBinAddr: 0x10000D1B0, symSize: 0x30 }
  - { offsetInCU: 0xE606, offset: 0x31EDF, size: 0x8, addend: 0x0, symName: __Z10precedencei, symObjAddr: 0x13E0, symBinAddr: 0x10000D1E0, symSize: 0x160 }
  - { offsetInCU: 0xE632, offset: 0x31F0B, size: 0x8, addend: 0x0, symName: __Z7resolveRNSt3__15stackI4TreeNS_5dequeIS1_NS_9allocatorIS1_EEEEEES7_, symObjAddr: 0x1540, symBinAddr: 0x10000D340, symSize: 0x390 }
  - { offsetInCU: 0xE6C0, offset: 0x31F99, size: 0x8, addend: 0x0, symName: __ZNKSt3__15stackI4TreeNS_5dequeIS1_NS_9allocatorIS1_EEEEE4sizeB7v160006Ev, symObjAddr: 0x18D0, symBinAddr: 0x10000D6D0, symSize: 0x20 }
  - { offsetInCU: 0xE6E4, offset: 0x31FBD, size: 0x8, addend: 0x0, symName: __ZNSt3__15stackI4TreeNS_5dequeIS1_NS_9allocatorIS1_EEEEE3topB7v160006Ev, symObjAddr: 0x18F0, symBinAddr: 0x10000D6F0, symSize: 0x20 }
  - { offsetInCU: 0xE708, offset: 0x31FE1, size: 0x8, addend: 0x0, symName: __ZNSt3__15stackI4TreeNS_5dequeIS1_NS_9allocatorIS1_EEEEE3popB7v160006Ev, symObjAddr: 0x1910, symBinAddr: 0x10000D710, symSize: 0x20 }
  - { offsetInCU: 0xE72C, offset: 0x32005, size: 0x8, addend: 0x0, symName: __ZN4Tree4Node4pushES_, symObjAddr: 0x1930, symBinAddr: 0x10000D730, symSize: 0x20 }
  - { offsetInCU: 0xE75F, offset: 0x32038, size: 0x8, addend: 0x0, symName: __ZNSt3__15stackI4TreeNS_5dequeIS1_NS_9allocatorIS1_EEEEE4pushB7v160006ERKS1_, symObjAddr: 0x1950, symBinAddr: 0x10000D750, symSize: 0x30 }
  - { offsetInCU: 0xE790, offset: 0x32069, size: 0x8, addend: 0x0, symName: __Z8setValueP5LexerRNS_5TokenER4Tree, symObjAddr: 0x1980, symBinAddr: 0x10000D780, symSize: 0x120 }
  - { offsetInCU: 0xE7D4, offset: 0x320AD, size: 0x8, addend: 0x0, symName: __Z17analyzeExpressionP5LexerRNS_5TokenE, symObjAddr: 0x1AA0, symBinAddr: 0x10000D8A0, symSize: 0xB20 }
  - { offsetInCU: 0xE868, offset: 0x32141, size: 0x8, addend: 0x0, symName: __Z15analyzeDataTypeP5LexerRNS_5TokenE, symObjAddr: 0x25C0, symBinAddr: 0x10000E3C0, symSize: 0xEE0 }
  - { offsetInCU: 0xE8C0, offset: 0x32199, size: 0x8, addend: 0x0, symName: __ZN4Tree4NodeC1EiN5Lexer5TokenERKNSt3__112basic_stringIcNS3_11char_traitsIcEENS3_9allocatorIcEEEE, symObjAddr: 0x34A0, symBinAddr: 0x10000F2A0, symSize: 0x30 }
  - { offsetInCU: 0xE912, offset: 0x321EB, size: 0x8, addend: 0x0, symName: __ZN4Tree4NodeC1EiN5Lexer5TokenE, symObjAddr: 0x34D0, symBinAddr: 0x10000F2D0, symSize: 0x30 }
  - { offsetInCU: 0xE955, offset: 0x3222E, size: 0x8, addend: 0x0, symName: __Z18analyzeArrayObjectP5LexerRNS_5TokenE, symObjAddr: 0x3500, symBinAddr: 0x10000F300, symSize: 0x580 }
  - { offsetInCU: 0xE9C7, offset: 0x322A0, size: 0x8, addend: 0x0, symName: __Z11getBodyStmtP5LexerRNS_5TokenE, symObjAddr: 0x3A80, symBinAddr: 0x10000F880, symSize: 0x60 }
  - { offsetInCU: 0xEA04, offset: 0x322DD, size: 0x8, addend: 0x0, symName: __Z17analyzeScopeBlockP5LexerRNS_5TokenE, symObjAddr: 0x3AE0, symBinAddr: 0x10000F8E0, symSize: 0x800 }
  - { offsetInCU: 0xEA51, offset: 0x3232A, size: 0x8, addend: 0x0, symName: __Z17analyzeIdentifierP5LexerRNS_5TokenE, symObjAddr: 0x42E0, symBinAddr: 0x1000100E0, symSize: 0xC30 }
  - { offsetInCU: 0xEAAD, offset: 0x32386, size: 0x8, addend: 0x0, symName: __Z23analyzeForLoopConditionP5LexerRNS_5TokenE, symObjAddr: 0x4F10, symBinAddr: 0x100010D10, symSize: 0x640 }
  - { offsetInCU: 0xEB20, offset: 0x323F9, size: 0x8, addend: 0x0, symName: __Z14analyzeForLoopP5LexerRNS_5TokenE, symObjAddr: 0x5550, symBinAddr: 0x100011350, symSize: 0x210 }
  - { offsetInCU: 0xEB6D, offset: 0x32446, size: 0x8, addend: 0x0, symName: __Z16analyzeWhileLoopP5LexerRNS_5TokenE, symObjAddr: 0x5760, symBinAddr: 0x100011560, symSize: 0x3B0 }
  - { offsetInCU: 0xEBD0, offset: 0x324A9, size: 0x8, addend: 0x0, symName: __Z18analyzeIfStatementP5LexerRNS_5TokenE, symObjAddr: 0x5B10, symBinAddr: 0x100011910, symSize: 0x3B0 }
  - { offsetInCU: 0xEC33, offset: 0x3250C, size: 0x8, addend: 0x0, symName: __Z20analyzeElseStatementP5LexerRNS_5TokenE, symObjAddr: 0x5EC0, symBinAddr: 0x100011CC0, symSize: 0x200 }
  - { offsetInCU: 0xEC80, offset: 0x32559, size: 0x8, addend: 0x0, symName: __Z15analyzeConstantP5LexerRNS_5TokenE, symObjAddr: 0x60C0, symBinAddr: 0x100011EC0, symSize: 0x1F0 }
  - { offsetInCU: 0xECCD, offset: 0x325A6, size: 0x8, addend: 0x0, symName: __Z13getFunctParamP5LexerRNS_5TokenE, symObjAddr: 0x62B0, symBinAddr: 0x1000120B0, symSize: 0x3E0 }
  - { offsetInCU: 0xED1A, offset: 0x325F3, size: 0x8, addend: 0x0, symName: __Z21analyzeFunctParameterP5LexerRNS_5TokenE, symObjAddr: 0x6690, symBinAddr: 0x100012490, symSize: 0x4C0 }
  - { offsetInCU: 0xED7D, offset: 0x32656, size: 0x8, addend: 0x0, symName: __Z25analyzeFunctionParametersP5LexerRNS_5TokenE, symObjAddr: 0x6B50, symBinAddr: 0x100012950, symSize: 0x2A0 }
  - { offsetInCU: 0xEDCA, offset: 0x326A3, size: 0x8, addend: 0x0, symName: __Z15analyzeFunctionP5LexerRNS_5TokenE, symObjAddr: 0x6DF0, symBinAddr: 0x100012BF0, symSize: 0x1D0 }
  - { offsetInCU: 0xEE17, offset: 0x326F0, size: 0x8, addend: 0x0, symName: __Z11analyzeHostP5LexerRNS_5TokenE, symObjAddr: 0x6FC0, symBinAddr: 0x100012DC0, symSize: 0x220 }
  - { offsetInCU: 0xEE89, offset: 0x32762, size: 0x8, addend: 0x0, symName: __ZNSt3__16vectorI4TreeNS_9allocatorIS1_EEEixB7v160006Em, symObjAddr: 0x7200, symBinAddr: 0x100012FE0, symSize: 0x20 }
  - { offsetInCU: 0xEEBF, offset: 0x32798, size: 0x8, addend: 0x0, symName: __Z27analyzeExpressionIdentifierP5LexerRNS_5TokenE, symObjAddr: 0x7220, symBinAddr: 0x100013000, symSize: 0x9E0 }
  - { offsetInCU: 0xEF1C, offset: 0x327F5, size: 0x8, addend: 0x0, symName: __ZN4Tree4NodeC1EN5Lexer5TokenERKNSt3__112basic_stringIcNS3_11char_traitsIcEENS3_9allocatorIcEEEE, symObjAddr: 0x7C00, symBinAddr: 0x1000139E0, symSize: 0x30 }
  - { offsetInCU: 0xEF5F, offset: 0x32838, size: 0x8, addend: 0x0, symName: __Z16tokenIsDelimiterRN5Lexer5TokenE, symObjAddr: 0x7C30, symBinAddr: 0x100013A10, symSize: 0x80 }
  - { offsetInCU: 0xEF8E, offset: 0x32867, size: 0x8, addend: 0x0, symName: __ZNSt3__15stackI4TreeNS_5dequeIS1_NS_9allocatorIS1_EEEEEC1B7v160006Ev, symObjAddr: 0x7CB0, symBinAddr: 0x100013A90, symSize: 0x20 }
  - { offsetInCU: 0xEFB6, offset: 0x3288F, size: 0x8, addend: 0x0, symName: __ZNKSt3__15stackI4TreeNS_5dequeIS1_NS_9allocatorIS1_EEEEE5emptyB7v160006Ev, symObjAddr: 0x7CD0, symBinAddr: 0x100013AB0, symSize: 0x20 }
  - { offsetInCU: 0xEFDA, offset: 0x328B3, size: 0x8, addend: 0x0, symName: __ZNSt3__15stackI4TreeNS_5dequeIS1_NS_9allocatorIS1_EEEEED1Ev, symObjAddr: 0x7CF0, symBinAddr: 0x100013AD0, symSize: 0x20 }
  - { offsetInCU: 0xF003, offset: 0x328DC, size: 0x8, addend: 0x0, symName: __Z16analyzeRightTermP5LexerRNS_5TokenE, symObjAddr: 0x7D10, symBinAddr: 0x100013AF0, symSize: 0x1C0 }
  - { offsetInCU: 0xF051, offset: 0x3292A, size: 0x8, addend: 0x0, symName: __ZN4TreeixEj, symObjAddr: 0x7ED0, symBinAddr: 0x100013CB0, symSize: 0x30 }
  - { offsetInCU: 0xF082, offset: 0x3295B, size: 0x8, addend: 0x0, symName: __Z17evaluateSemicolonP5LexerRNS_5TokenER4Tree, symObjAddr: 0x7F00, symBinAddr: 0x100013CE0, symSize: 0x100 }
  - { offsetInCU: 0xF15C, offset: 0x32A35, size: 0x8, addend: 0x0, symName: __ZN6Syntax7analyzeEP5Lexer, symObjAddr: 0x8000, symBinAddr: 0x100013DE0, symSize: 0x420 }
  - { offsetInCU: 0xF1C8, offset: 0x32AA1, size: 0x8, addend: 0x0, symName: __ZN4Tree4NodeC1Ev, symObjAddr: 0x8420, symBinAddr: 0x100014200, symSize: 0x20 }
  - { offsetInCU: 0xF1EF, offset: 0x32AC8, size: 0x8, addend: 0x0, symName: __Z9printNodeiR4Tree, symObjAddr: 0x84B0, symBinAddr: 0x100014290, symSize: 0x110 }
  - { offsetInCU: 0xF265, offset: 0x32B3E, size: 0x8, addend: 0x0, symName: __ZN6Syntax9printTreeEv, symObjAddr: 0x8610, symBinAddr: 0x1000143F0, symSize: 0xA0 }
  - { offsetInCU: 0xF2AB, offset: 0x32B84, size: 0x8, addend: 0x0, symName: __ZN6Syntax7getTreeEv, symObjAddr: 0x86B0, symBinAddr: 0x100014490, symSize: 0x10 }
  - { offsetInCU: 0xF2D3, offset: 0x32BAC, size: 0x8, addend: 0x0, symName: __ZN6Syntax5clearEv, symObjAddr: 0x86C0, symBinAddr: 0x1000144A0, symSize: 0x20 }
  - { offsetInCU: 0xF2FB, offset: 0x32BD4, size: 0x8, addend: 0x0, symName: __ZN6SyntaxD2Ev, symObjAddr: 0x86E0, symBinAddr: 0x1000144C0, symSize: 0x60 }
  - { offsetInCU: 0xF327, offset: 0x32C00, size: 0x8, addend: 0x0, symName: __ZN6SyntaxD1Ev, symObjAddr: 0x8740, symBinAddr: 0x100014520, symSize: 0x20 }
  - { offsetInCU: 0xF353, offset: 0x32C2C, size: 0x8, addend: 0x0, symName: __ZN6SyntaxC2Ev, symObjAddr: 0x8760, symBinAddr: 0x100014540, symSize: 0x20 }
  - { offsetInCU: 0xF37F, offset: 0x32C58, size: 0x8, addend: 0x0, symName: __ZN6SyntaxC1Ev, symObjAddr: 0x8780, symBinAddr: 0x100014560, symSize: 0x20 }
  - { offsetInCU: 0xF3AA, offset: 0x32C83, size: 0x8, addend: 0x0, symName: __ZNSt3__16vectorI4TreeNS_9allocatorIS1_EEE9push_backB7v160006ERKS1_, symObjAddr: 0x87A0, symBinAddr: 0x100014580, symSize: 0x60 }
  - { offsetInCU: 0xF3E1, offset: 0x32CBA, size: 0x8, addend: 0x0, symName: __ZNSt3__16vectorI4TreeNS_9allocatorIS1_EEE9__end_capB7v160006Ev, symObjAddr: 0x8800, symBinAddr: 0x1000145E0, symSize: 0x20 }
  - { offsetInCU: 0xF405, offset: 0x32CDE, size: 0x8, addend: 0x0, symName: __ZNSt3__16vectorI4TreeNS_9allocatorIS1_EEE22__construct_one_at_endB7v160006IJRKS1_EEEvDpOT_, symObjAddr: 0x8820, symBinAddr: 0x100014600, symSize: 0xA0 }
  - { offsetInCU: 0xF451, offset: 0x32D2A, size: 0x8, addend: 0x0, symName: __ZNSt3__16vectorI4TreeNS_9allocatorIS1_EEE21__push_back_slow_pathIRKS1_EEvOT_, symObjAddr: 0x88C0, symBinAddr: 0x1000146A0, symSize: 0xE0 }
  - { offsetInCU: 0xF4AF, offset: 0x32D88, size: 0x8, addend: 0x0, symName: __ZNSt3__117__compressed_pairIP4TreeNS_9allocatorIS1_EEE5firstB7v160006Ev, symObjAddr: 0x89A0, symBinAddr: 0x100014780, symSize: 0x20 }
  - { offsetInCU: 0xF4D3, offset: 0x32DAC, size: 0x8, addend: 0x0, symName: __ZNSt3__122__compressed_pair_elemIP4TreeLi0ELb0EE5__getB7v160006Ev, symObjAddr: 0x89C0, symBinAddr: 0x1000147A0, symSize: 0x10 }
  - { offsetInCU: 0xF510, offset: 0x32DE9, size: 0x8, addend: 0x0, symName: __ZNSt3__16vectorI4TreeNS_9allocatorIS1_EEE21_ConstructTransactionC1B7v160006ERS4_m, symObjAddr: 0x89D0, symBinAddr: 0x1000147B0, symSize: 0x30 }
  - { offsetInCU: 0xF556, offset: 0x32E2F, size: 0x8, addend: 0x0, symName: __ZNSt3__116allocator_traitsINS_9allocatorI4TreeEEE9constructB7v160006IS2_JRKS2_EvEEvRS3_PT_DpOT0_, symObjAddr: 0x8A00, symBinAddr: 0x1000147E0, symSize: 0x30 }
  - { offsetInCU: 0xF5AC, offset: 0x32E85, size: 0x8, addend: 0x0, symName: __ZNSt3__16vectorI4TreeNS_9allocatorIS1_EEE21_ConstructTransactionD1B7v160006Ev, symObjAddr: 0x8A60, symBinAddr: 0x100014810, symSize: 0x20 }
  - { offsetInCU: 0xF5D4, offset: 0x32EAD, size: 0x8, addend: 0x0, symName: __ZNSt3__16vectorI4TreeNS_9allocatorIS1_EEE21_ConstructTransactionC2B7v160006ERS4_m, symObjAddr: 0x8A80, symBinAddr: 0x100014830, symSize: 0x40 }
  - { offsetInCU: 0xF61A, offset: 0x32EF3, size: 0x8, addend: 0x0, symName: __ZNSt3__19allocatorI4TreeE9constructB7v160006IS1_JRKS1_EEEvPT_DpOT0_, symObjAddr: 0x8AC0, symBinAddr: 0x100014870, symSize: 0x30 }
  - { offsetInCU: 0xF66E, offset: 0x32F47, size: 0x8, addend: 0x0, symName: __ZNSt3__16vectorI4TreeNS_9allocatorIS1_EEE21_ConstructTransactionD2B7v160006Ev, symObjAddr: 0x8B20, symBinAddr: 0x1000148A0, symSize: 0x20 }
  - { offsetInCU: 0xF695, offset: 0x32F6E, size: 0x8, addend: 0x0, symName: __ZNKSt3__16vectorI4TreeNS_9allocatorIS1_EEE11__recommendB7v160006Em, symObjAddr: 0x8B40, symBinAddr: 0x1000148C0, symSize: 0xA0 }
  - { offsetInCU: 0xF6EA, offset: 0x32FC3, size: 0x8, addend: 0x0, symName: __ZNSt3__114__split_bufferI4TreeRNS_9allocatorIS1_EEEC1EmmS4_, symObjAddr: 0x8BE0, symBinAddr: 0x100014960, symSize: 0x40 }
  - { offsetInCU: 0xF73F, offset: 0x33018, size: 0x8, addend: 0x0, symName: __ZNSt3__114__split_bufferI4TreeRNS_9allocatorIS1_EEED1Ev, symObjAddr: 0x8D50, symBinAddr: 0x100014AD0, symSize: 0x20 }
  - { offsetInCU: 0xF769, offset: 0x33042, size: 0x8, addend: 0x0, symName: __ZNKSt3__16vectorI4TreeNS_9allocatorIS1_EEE8max_sizeEv, symObjAddr: 0x8D70, symBinAddr: 0x100014AF0, symSize: 0x70 }
  - { offsetInCU: 0xF791, offset: 0x3306A, size: 0x8, addend: 0x0, symName: __ZNKSt3__16vectorI4TreeNS_9allocatorIS1_EEE20__throw_length_errorB7v160006Ev, symObjAddr: 0x8DE0, symBinAddr: 0x100014B60, symSize: 0x20 }
  - { offsetInCU: 0xF7BF, offset: 0x33098, size: 0x8, addend: 0x0, symName: __ZNSt3__116allocator_traitsINS_9allocatorI4TreeEEE8max_sizeB7v160006IS3_vEEmRKS3_, symObjAddr: 0x8E90, symBinAddr: 0x100014B80, symSize: 0x20 }
  - { offsetInCU: 0xF7EC, offset: 0x330C5, size: 0x8, addend: 0x0, symName: __ZNKSt3__16vectorI4TreeNS_9allocatorIS1_EEE7__allocB7v160006Ev, symObjAddr: 0x8EB0, symBinAddr: 0x100014BA0, symSize: 0x20 }
  - { offsetInCU: 0xF810, offset: 0x330E9, size: 0x8, addend: 0x0, symName: __ZNKSt3__19allocatorI4TreeE8max_sizeB7v160006Ev, symObjAddr: 0x8F60, symBinAddr: 0x100014BC0, symSize: 0x20 }
  - { offsetInCU: 0xF834, offset: 0x3310D, size: 0x8, addend: 0x0, symName: __ZNKSt3__117__compressed_pairIP4TreeNS_9allocatorIS1_EEE6secondB7v160006Ev, symObjAddr: 0x8F80, symBinAddr: 0x100014BE0, symSize: 0x20 }
  - { offsetInCU: 0xF858, offset: 0x33131, size: 0x8, addend: 0x0, symName: __ZNKSt3__122__compressed_pair_elemINS_9allocatorI4TreeEELi1ELb1EE5__getB7v160006Ev, symObjAddr: 0x8FA0, symBinAddr: 0x100014C00, symSize: 0x10 }
  - { offsetInCU: 0xF87C, offset: 0x33155, size: 0x8, addend: 0x0, symName: __ZNSt3__114__split_bufferI4TreeRNS_9allocatorIS1_EEEC2EmmS4_, symObjAddr: 0x9140, symBinAddr: 0x100014C10, symSize: 0xD0 }
  - { offsetInCU: 0xF8F4, offset: 0x331CD, size: 0x8, addend: 0x0, symName: __ZNSt3__117__compressed_pairIP4TreeRNS_9allocatorIS1_EEEC1B7v160006IDnS5_EEOT_OT0_, symObjAddr: 0x9210, symBinAddr: 0x100014CE0, symSize: 0x30 }
  - { offsetInCU: 0xF94A, offset: 0x33223, size: 0x8, addend: 0x0, symName: __ZNSt3__114__split_bufferI4TreeRNS_9allocatorIS1_EEE7__allocB7v160006Ev, symObjAddr: 0x9280, symBinAddr: 0x100014D50, symSize: 0x20 }
  - { offsetInCU: 0xF96E, offset: 0x33247, size: 0x8, addend: 0x0, symName: __ZNSt3__114__split_bufferI4TreeRNS_9allocatorIS1_EEE9__end_capB7v160006Ev, symObjAddr: 0x92A0, symBinAddr: 0x100014D70, symSize: 0x20 }
  - { offsetInCU: 0xF992, offset: 0x3326B, size: 0x8, addend: 0x0, symName: __ZNSt3__117__compressed_pairIP4TreeRNS_9allocatorIS1_EEEC2B7v160006IDnS5_EEOT_OT0_, symObjAddr: 0x92C0, symBinAddr: 0x100014D90, symSize: 0x40 }
  - { offsetInCU: 0xF9E8, offset: 0x332C1, size: 0x8, addend: 0x0, symName: __ZNSt3__122__compressed_pair_elemIP4TreeLi0ELb0EEC2B7v160006IDnvEEOT_, symObjAddr: 0x9300, symBinAddr: 0x100014DD0, symSize: 0x20 }
  - { offsetInCU: 0xFA28, offset: 0x33301, size: 0x8, addend: 0x0, symName: __ZNSt3__122__compressed_pair_elemIRNS_9allocatorI4TreeEELi1ELb0EEC2B7v160006IS4_vEEOT_, symObjAddr: 0x9320, symBinAddr: 0x100014DF0, symSize: 0x20 }
  - { offsetInCU: 0xFA68, offset: 0x33341, size: 0x8, addend: 0x0, symName: __ZNSt3__19allocatorI4TreeE8allocateB7v160006Em, symObjAddr: 0x9340, symBinAddr: 0x100014E10, symSize: 0x80 }
  - { offsetInCU: 0xFA9A, offset: 0x33373, size: 0x8, addend: 0x0, symName: __ZNSt3__117__compressed_pairIP4TreeRNS_9allocatorIS1_EEE6secondB7v160006Ev, symObjAddr: 0x9450, symBinAddr: 0x100014E90, symSize: 0x20 }
  - { offsetInCU: 0xFABE, offset: 0x33397, size: 0x8, addend: 0x0, symName: __ZNSt3__122__compressed_pair_elemIRNS_9allocatorI4TreeEELi1ELb0EE5__getB7v160006Ev, symObjAddr: 0x9470, symBinAddr: 0x100014EB0, symSize: 0x20 }
  - { offsetInCU: 0xFAE2, offset: 0x333BB, size: 0x8, addend: 0x0, symName: __ZNSt3__117__compressed_pairIP4TreeRNS_9allocatorIS1_EEE5firstB7v160006Ev, symObjAddr: 0x9490, symBinAddr: 0x100014ED0, symSize: 0x20 }
  - { offsetInCU: 0xFB06, offset: 0x333DF, size: 0x8, addend: 0x0, symName: __ZNSt3__116reverse_iteratorIP4TreeEC1B7v160006ES2_, symObjAddr: 0x96F0, symBinAddr: 0x100015080, symSize: 0x30 }
  - { offsetInCU: 0xFB3C, offset: 0x33415, size: 0x8, addend: 0x0, symName: __ZNKSt3__116reverse_iteratorIP4TreeE4baseB7v160006Ev, symObjAddr: 0x9720, symBinAddr: 0x1000150B0, symSize: 0x20 }
  - { offsetInCU: 0xFB60, offset: 0x33439, size: 0x8, addend: 0x0, symName: __ZNKSt3__16vectorI4TreeNS_9allocatorIS1_EEE14__annotate_newB7v160006Em, symObjAddr: 0x9780, symBinAddr: 0x100015110, symSize: 0xB0 }
  - { offsetInCU: 0xFB93, offset: 0x3346C, size: 0x8, addend: 0x0, symName: __ZNSt3__129_AllocatorDestroyRangeReverseINS_9allocatorI4TreeEENS_16reverse_iteratorIPS2_EEEC1B7v160006ERS3_RS6_S9_, symObjAddr: 0x98E0, symBinAddr: 0x100015230, symSize: 0x40 }
  - { offsetInCU: 0xFBE8, offset: 0x334C1, size: 0x8, addend: 0x0, symName: __ZNKSt3__116reverse_iteratorIP4TreeEdeB7v160006Ev, symObjAddr: 0x9980, symBinAddr: 0x1000152D0, symSize: 0x30 }
  - { offsetInCU: 0xFC1A, offset: 0x334F3, size: 0x8, addend: 0x0, symName: __ZNSt3__116reverse_iteratorIP4TreeEppB7v160006Ev, symObjAddr: 0x99B0, symBinAddr: 0x100015300, symSize: 0x20 }
  - { offsetInCU: 0xFC3E, offset: 0x33517, size: 0x8, addend: 0x0, symName: __ZNSt3__128__exception_guard_exceptionsINS_29_AllocatorDestroyRangeReverseINS_9allocatorI4TreeEENS_16reverse_iteratorIPS3_EEEEE10__completeB7v160006Ev, symObjAddr: 0x99D0, symBinAddr: 0x100015320, symSize: 0x20 }
  - { offsetInCU: 0xFC62, offset: 0x3353B, size: 0x8, addend: 0x0, symName: __ZNSt3__128__exception_guard_exceptionsINS_29_AllocatorDestroyRangeReverseINS_9allocatorI4TreeEENS_16reverse_iteratorIPS3_EEEEED1B7v160006Ev, symObjAddr: 0x99F0, symBinAddr: 0x100015340, symSize: 0x20 }
  - { offsetInCU: 0xFC8A, offset: 0x33563, size: 0x8, addend: 0x0, symName: __ZNSt3__128__exception_guard_exceptionsINS_29_AllocatorDestroyRangeReverseINS_9allocatorI4TreeEENS_16reverse_iteratorIPS3_EEEEEC1B7v160006ES8_, symObjAddr: 0x9A10, symBinAddr: 0x100015360, symSize: 0x40 }
  - { offsetInCU: 0xFCC0, offset: 0x33599, size: 0x8, addend: 0x0, symName: __ZNSt3__128__exception_guard_exceptionsINS_29_AllocatorDestroyRangeReverseINS_9allocatorI4TreeEENS_16reverse_iteratorIPS3_EEEEEC2B7v160006ES8_, symObjAddr: 0x9A50, symBinAddr: 0x1000153A0, symSize: 0x30 }
  - { offsetInCU: 0xFCF6, offset: 0x335CF, size: 0x8, addend: 0x0, symName: __ZNSt3__129_AllocatorDestroyRangeReverseINS_9allocatorI4TreeEENS_16reverse_iteratorIPS2_EEEC2B7v160006ERS3_RS6_S9_, symObjAddr: 0x9A80, symBinAddr: 0x1000153D0, symSize: 0x40 }
  - { offsetInCU: 0xFD50, offset: 0x33629, size: 0x8, addend: 0x0, symName: __ZNSt3__119__to_address_helperINS_16reverse_iteratorIP4TreeEEvE6__callB7v160006ERKS4_, symObjAddr: 0x9AC0, symBinAddr: 0x100015410, symSize: 0x50 }
  - { offsetInCU: 0xFD72, offset: 0x3364B, size: 0x8, addend: 0x0, symName: __ZNKSt3__116reverse_iteratorIP4TreeEptB7v160006Ev, symObjAddr: 0x9B10, symBinAddr: 0x100015460, symSize: 0x20 }
  - { offsetInCU: 0xFD96, offset: 0x3366F, size: 0x8, addend: 0x0, symName: __ZNSt3__128__exception_guard_exceptionsINS_29_AllocatorDestroyRangeReverseINS_9allocatorI4TreeEENS_16reverse_iteratorIPS3_EEEEED2B7v160006Ev, symObjAddr: 0x9B30, symBinAddr: 0x100015480, symSize: 0x30 }
  - { offsetInCU: 0xFDBE, offset: 0x33697, size: 0x8, addend: 0x0, symName: __ZNKSt3__129_AllocatorDestroyRangeReverseINS_9allocatorI4TreeEENS_16reverse_iteratorIPS2_EEEclB7v160006Ev, symObjAddr: 0x9B60, symBinAddr: 0x1000154B0, symSize: 0xF0 }
  - { offsetInCU: 0xFDE3, offset: 0x336BC, size: 0x8, addend: 0x0, symName: __ZNSt3__116reverse_iteratorINS0_IP4TreeEEEC1B7v160006ES3_, symObjAddr: 0x9CC0, symBinAddr: 0x100015610, symSize: 0x30 }
  - { offsetInCU: 0xFE19, offset: 0x336F2, size: 0x8, addend: 0x0, symName: __ZNSt3__116reverse_iteratorINS0_IP4TreeEEEppB7v160006Ev, symObjAddr: 0x9D90, symBinAddr: 0x1000156B0, symSize: 0x30 }
  - { offsetInCU: 0xFE3D, offset: 0x33716, size: 0x8, addend: 0x0, symName: __ZNKSt3__116reverse_iteratorINS0_IP4TreeEEE4baseB7v160006Ev, symObjAddr: 0x9DC0, symBinAddr: 0x1000156E0, symSize: 0x20 }
  - { offsetInCU: 0xFE66, offset: 0x3373F, size: 0x8, addend: 0x0, symName: __ZNSt3__119__to_address_helperINS_16reverse_iteratorINS1_IP4TreeEEEEvE6__callB7v160006ERKS5_, symObjAddr: 0x9E00, symBinAddr: 0x100015700, symSize: 0x50 }
  - { offsetInCU: 0xFE88, offset: 0x33761, size: 0x8, addend: 0x0, symName: __ZNKSt3__116reverse_iteratorINS0_IP4TreeEEEptB7v160006Ev, symObjAddr: 0x9E50, symBinAddr: 0x100015750, symSize: 0x20 }
  - { offsetInCU: 0xFEAC, offset: 0x33785, size: 0x8, addend: 0x0, symName: __ZNKSt3__116reverse_iteratorINS0_IP4TreeEEEdeB7v160006Ev, symObjAddr: 0x9E70, symBinAddr: 0x100015770, symSize: 0x40 }
  - { offsetInCU: 0xFEDE, offset: 0x337B7, size: 0x8, addend: 0x0, symName: __ZNSt3__116reverse_iteratorIP4TreeEmmB7v160006Ev, symObjAddr: 0x9EB0, symBinAddr: 0x1000157B0, symSize: 0x20 }
  - { offsetInCU: 0xFF02, offset: 0x337DB, size: 0x8, addend: 0x0, symName: __ZNSt3__116reverse_iteratorINS0_IP4TreeEEEC2B7v160006ES3_, symObjAddr: 0x9ED0, symBinAddr: 0x1000157D0, symSize: 0x40 }
  - { offsetInCU: 0xFF38, offset: 0x33811, size: 0x8, addend: 0x0, symName: __ZNSt3__116reverse_iteratorIP4TreeEC2B7v160006ES2_, symObjAddr: 0x9F10, symBinAddr: 0x100015810, symSize: 0x30 }
  - { offsetInCU: 0xFF6E, offset: 0x33847, size: 0x8, addend: 0x0, symName: __ZNSt3__114__split_bufferI4TreeRNS_9allocatorIS1_EEED2Ev, symObjAddr: 0x9F40, symBinAddr: 0x100015840, symSize: 0x60 }
  - { offsetInCU: 0xFF99, offset: 0x33872, size: 0x8, addend: 0x0, symName: __ZNSt3__114__split_bufferI4TreeRNS_9allocatorIS1_EEE5clearB7v160006Ev, symObjAddr: 0x9FA0, symBinAddr: 0x1000158A0, symSize: 0x20 }
  - { offsetInCU: 0xFFBD, offset: 0x33896, size: 0x8, addend: 0x0, symName: __ZNKSt3__114__split_bufferI4TreeRNS_9allocatorIS1_EEE8capacityB7v160006Ev, symObjAddr: 0x9FF0, symBinAddr: 0x1000158C0, symSize: 0x30 }
  - { offsetInCU: 0xFFE1, offset: 0x338BA, size: 0x8, addend: 0x0, symName: __ZNSt3__114__split_bufferI4TreeRNS_9allocatorIS1_EEE17__destruct_at_endB7v160006EPS1_, symObjAddr: 0xA020, symBinAddr: 0x1000158F0, symSize: 0x30 }
  - { offsetInCU: 0x10012, offset: 0x338EB, size: 0x8, addend: 0x0, symName: __ZNSt3__114__split_bufferI4TreeRNS_9allocatorIS1_EEE17__destruct_at_endB7v160006EPS1_NS_17integral_constantIbLb0EEE, symObjAddr: 0xA050, symBinAddr: 0x100015920, symSize: 0x80 }
  - { offsetInCU: 0x10053, offset: 0x3392C, size: 0x8, addend: 0x0, symName: __ZNKSt3__114__split_bufferI4TreeRNS_9allocatorIS1_EEE9__end_capB7v160006Ev, symObjAddr: 0xA1B0, symBinAddr: 0x1000159A0, symSize: 0x20 }
  - { offsetInCU: 0x10077, offset: 0x33950, size: 0x8, addend: 0x0, symName: __ZNKSt3__117__compressed_pairIP4TreeRNS_9allocatorIS1_EEE5firstB7v160006Ev, symObjAddr: 0xA1D0, symBinAddr: 0x1000159C0, symSize: 0x20 }
  - { offsetInCU: 0x1009B, offset: 0x33974, size: 0x8, addend: 0x0, symName: __ZN4Tree4NodeC2EiN5Lexer5TokenERKNSt3__112basic_stringIcNS3_11char_traitsIcEENS3_9allocatorIcEEEE, symObjAddr: 0xA1F0, symBinAddr: 0x1000159E0, symSize: 0xA0 }
  - { offsetInCU: 0x100ED, offset: 0x339C6, size: 0x8, addend: 0x0, symName: __ZNSt3__16vectorI4TreeNS_9allocatorIS1_EEEC1B7v160006Ev, symObjAddr: 0xA290, symBinAddr: 0x100015A80, symSize: 0x20 }
  - { offsetInCU: 0x10115, offset: 0x339EE, size: 0x8, addend: 0x0, symName: __ZNSt3__16vectorI4TreeNS_9allocatorIS1_EEEC2B7v160006Ev, symObjAddr: 0xA2D0, symBinAddr: 0x100015AA0, symSize: 0x50 }
  - { offsetInCU: 0x10142, offset: 0x33A1B, size: 0x8, addend: 0x0, symName: __ZNSt3__117__compressed_pairIP4TreeNS_9allocatorIS1_EEEC1B7v160006IDnNS_18__default_init_tagEEEOT_OT0_, symObjAddr: 0xA320, symBinAddr: 0x100015AF0, symSize: 0x30 }
  - { offsetInCU: 0x10198, offset: 0x33A71, size: 0x8, addend: 0x0, symName: __ZNSt3__117__compressed_pairIP4TreeNS_9allocatorIS1_EEEC2B7v160006IDnNS_18__default_init_tagEEEOT_OT0_, symObjAddr: 0xA360, symBinAddr: 0x100015B30, symSize: 0x40 }
  - { offsetInCU: 0x101EE, offset: 0x33AC7, size: 0x8, addend: 0x0, symName: __ZNSt3__122__compressed_pair_elemINS_9allocatorI4TreeEELi1ELb1EEC2B7v160006ENS_18__default_init_tagE, symObjAddr: 0xA3A0, symBinAddr: 0x100015B70, symSize: 0x20 }
  - { offsetInCU: 0x10221, offset: 0x33AFA, size: 0x8, addend: 0x0, symName: __ZNSt3__19allocatorI4TreeEC2B7v160006Ev, symObjAddr: 0xA3C0, symBinAddr: 0x100015B90, symSize: 0x20 }
  - { offsetInCU: 0x10249, offset: 0x33B22, size: 0x8, addend: 0x0, symName: __ZNSt3__116__non_trivial_ifILb1ENS_9allocatorI4TreeEEEC2B7v160006Ev, symObjAddr: 0xA3E0, symBinAddr: 0x100015BB0, symSize: 0x10 }
  - { offsetInCU: 0x10271, offset: 0x33B4A, size: 0x8, addend: 0x0, symName: __ZN4Tree4NodeC2EiN5Lexer5TokenE, symObjAddr: 0xA5C0, symBinAddr: 0x100015BC0, symSize: 0x90 }
  - { offsetInCU: 0x102B5, offset: 0x33B8E, size: 0x8, addend: 0x0, symName: __ZN4Tree4NodeC2EN5Lexer5TokenERKNSt3__112basic_stringIcNS3_11char_traitsIcEENS3_9allocatorIcEEEE, symObjAddr: 0xA650, symBinAddr: 0x100015C50, symSize: 0xA0 }
  - { offsetInCU: 0x102F9, offset: 0x33BD2, size: 0x8, addend: 0x0, symName: __ZNSt3__15stackI4TreeNS_5dequeIS1_NS_9allocatorIS1_EEEEED2Ev, symObjAddr: 0xA6F0, symBinAddr: 0x100015CF0, symSize: 0x20 }
  - { offsetInCU: 0x10323, offset: 0x33BFC, size: 0x8, addend: 0x0, symName: __ZNSt3__15dequeI4TreeNS_9allocatorIS1_EEED1B7v160006Ev, symObjAddr: 0xA710, symBinAddr: 0x100015D10, symSize: 0x20 }
  - { offsetInCU: 0x1034B, offset: 0x33C24, size: 0x8, addend: 0x0, symName: __ZNSt3__15dequeI4TreeNS_9allocatorIS1_EEED2B7v160006Ev, symObjAddr: 0xA730, symBinAddr: 0x100015D30, symSize: 0x80 }
  - { offsetInCU: 0x1039F, offset: 0x33C78, size: 0x8, addend: 0x0, symName: __ZNSt3__15dequeI4TreeNS_9allocatorIS1_EEE5clearEv, symObjAddr: 0xA7B0, symBinAddr: 0x100015DB0, symSize: 0x190 }
  - { offsetInCU: 0x10403, offset: 0x33CDC, size: 0x8, addend: 0x0, symName: __ZNSt3__114__split_bufferIP4TreeNS_9allocatorIS2_EEE5beginB7v160006Ev, symObjAddr: 0xA940, symBinAddr: 0x100015F40, symSize: 0x20 }
  - { offsetInCU: 0x10427, offset: 0x33D00, size: 0x8, addend: 0x0, symName: __ZNSt3__114__split_bufferIP4TreeNS_9allocatorIS2_EEE3endB7v160006Ev, symObjAddr: 0xA960, symBinAddr: 0x100015F60, symSize: 0x20 }
  - { offsetInCU: 0x1044B, offset: 0x33D24, size: 0x8, addend: 0x0, symName: __ZNSt3__15dequeI4TreeNS_9allocatorIS1_EEE7__allocB7v160006Ev, symObjAddr: 0xA980, symBinAddr: 0x100015F80, symSize: 0x20 }
  - { offsetInCU: 0x1046F, offset: 0x33D48, size: 0x8, addend: 0x0, symName: __ZNSt3__114__split_bufferIP4TreeNS_9allocatorIS2_EEED1Ev, symObjAddr: 0xA9A0, symBinAddr: 0x100015FA0, symSize: 0x20 }
  - { offsetInCU: 0x1049A, offset: 0x33D73, size: 0x8, addend: 0x0, symName: __ZNSt3__15dequeI4TreeNS_9allocatorIS1_EEE5beginB7v160006Ev, symObjAddr: 0xA9C0, symBinAddr: 0x100015FC0, symSize: 0xC0 }
  - { offsetInCU: 0x104CD, offset: 0x33DA6, size: 0x8, addend: 0x0, symName: __ZNSt3__15dequeI4TreeNS_9allocatorIS1_EEE3endB7v160006Ev, symObjAddr: 0xAA80, symBinAddr: 0x100016080, symSize: 0xB0 }
  - { offsetInCU: 0x1050F, offset: 0x33DE8, size: 0x8, addend: 0x0, symName: __ZNKSt3__116__deque_iteratorI4TreePS1_RS1_PS2_lLl512EEdeB7v160006Ev, symObjAddr: 0xAB60, symBinAddr: 0x100016160, symSize: 0x20 }
  - { offsetInCU: 0x10533, offset: 0x33E0C, size: 0x8, addend: 0x0, symName: __ZNSt3__116__deque_iteratorI4TreePS1_RS1_PS2_lLl512EEppB7v160006Ev, symObjAddr: 0xAB80, symBinAddr: 0x100016180, symSize: 0x60 }
  - { offsetInCU: 0x10557, offset: 0x33E30, size: 0x8, addend: 0x0, symName: __ZNSt3__15dequeI4TreeNS_9allocatorIS1_EEE6__sizeB7v160006Ev, symObjAddr: 0xABE0, symBinAddr: 0x1000161E0, symSize: 0x20 }
  - { offsetInCU: 0x1057B, offset: 0x33E54, size: 0x8, addend: 0x0, symName: __ZNKSt3__114__split_bufferIP4TreeNS_9allocatorIS2_EEE4sizeB7v160006Ev, symObjAddr: 0xAC00, symBinAddr: 0x100016200, symSize: 0x20 }
  - { offsetInCU: 0x1059F, offset: 0x33E78, size: 0x8, addend: 0x0, symName: __ZNSt3__114__split_bufferIP4TreeNS_9allocatorIS2_EEE5frontB7v160006Ev, symObjAddr: 0xAC20, symBinAddr: 0x100016220, symSize: 0x20 }
  - { offsetInCU: 0x105C3, offset: 0x33E9C, size: 0x8, addend: 0x0, symName: __ZNSt3__114__split_bufferIP4TreeNS_9allocatorIS2_EEE9pop_frontB7v160006Ev, symObjAddr: 0xAC40, symBinAddr: 0x100016240, symSize: 0x30 }
  - { offsetInCU: 0x105E7, offset: 0x33EC0, size: 0x8, addend: 0x0, symName: __ZNKSt3__114__split_bufferIP4TreeNS_9allocatorIS2_EEE5emptyB7v160006Ev, symObjAddr: 0xAC70, symBinAddr: 0x100016270, symSize: 0x20 }
  - { offsetInCU: 0x1060B, offset: 0x33EE4, size: 0x8, addend: 0x0, symName: __ZNSt3__116__deque_iteratorI4TreePS1_RS1_PS2_lLl512EEC1B7v160006ES4_S2_, symObjAddr: 0xAC90, symBinAddr: 0x100016290, symSize: 0x30 }
  - { offsetInCU: 0x10651, offset: 0x33F2A, size: 0x8, addend: 0x0, symName: __ZNSt3__116__deque_iteratorI4TreePS1_RS1_PS2_lLl512EEC2B7v160006ES4_S2_, symObjAddr: 0xACC0, symBinAddr: 0x1000162C0, symSize: 0x30 }
  - { offsetInCU: 0x10697, offset: 0x33F70, size: 0x8, addend: 0x0, symName: __ZNKSt3__15dequeI4TreeNS_9allocatorIS1_EEE4sizeB7v160006Ev, symObjAddr: 0xACF0, symBinAddr: 0x1000162F0, symSize: 0x20 }
  - { offsetInCU: 0x106BB, offset: 0x33F94, size: 0x8, addend: 0x0, symName: __ZNKSt3__15dequeI4TreeNS_9allocatorIS1_EEE6__sizeB7v160006Ev, symObjAddr: 0xAD10, symBinAddr: 0x100016310, symSize: 0x20 }
  - { offsetInCU: 0x106DF, offset: 0x33FB8, size: 0x8, addend: 0x0, symName: __ZNKSt3__117__compressed_pairImNS_9allocatorI4TreeEEE5firstB7v160006Ev, symObjAddr: 0xAD30, symBinAddr: 0x100016330, symSize: 0x20 }
  - { offsetInCU: 0x10703, offset: 0x33FDC, size: 0x8, addend: 0x0, symName: __ZNKSt3__122__compressed_pair_elemImLi0ELb0EE5__getB7v160006Ev, symObjAddr: 0xAD50, symBinAddr: 0x100016350, symSize: 0x10 }
  - { offsetInCU: 0x10727, offset: 0x34000, size: 0x8, addend: 0x0, symName: __ZNSt3__117__compressed_pairImNS_9allocatorI4TreeEEE5firstB7v160006Ev, symObjAddr: 0xAD90, symBinAddr: 0x100016390, symSize: 0x20 }
  - { offsetInCU: 0x1074B, offset: 0x34024, size: 0x8, addend: 0x0, symName: __ZNSt3__114__split_bufferIP4TreeNS_9allocatorIS2_EEE19__destruct_at_beginB7v160006EPS2_, symObjAddr: 0xADC0, symBinAddr: 0x1000163B0, symSize: 0x30 }
  - { offsetInCU: 0x1077C, offset: 0x34055, size: 0x8, addend: 0x0, symName: __ZNSt3__114__split_bufferIP4TreeNS_9allocatorIS2_EEE19__destruct_at_beginEPS2_NS_17integral_constantIbLb1EEE, symObjAddr: 0xADF0, symBinAddr: 0x1000163E0, symSize: 0x20 }
  - { offsetInCU: 0x107BD, offset: 0x34096, size: 0x8, addend: 0x0, symName: __ZNSt3__117__compressed_pairImNS_9allocatorI4TreeEEE6secondB7v160006Ev, symObjAddr: 0xAE10, symBinAddr: 0x100016400, symSize: 0x20 }
  - { offsetInCU: 0x107E1, offset: 0x340BA, size: 0x8, addend: 0x0, symName: __ZNSt3__114__split_bufferIP4TreeNS_9allocatorIS2_EEED2Ev, symObjAddr: 0xAE30, symBinAddr: 0x100016420, symSize: 0x60 }
  - { offsetInCU: 0x1080C, offset: 0x340E5, size: 0x8, addend: 0x0, symName: __ZNSt3__114__split_bufferIP4TreeNS_9allocatorIS2_EEE5clearB7v160006Ev, symObjAddr: 0xAE90, symBinAddr: 0x100016480, symSize: 0x20 }
  - { offsetInCU: 0x10830, offset: 0x34109, size: 0x8, addend: 0x0, symName: __ZNSt3__116allocator_traitsINS_9allocatorIP4TreeEEE10deallocateB7v160006ERS4_PS3_m, symObjAddr: 0xAEB0, symBinAddr: 0x1000164A0, symSize: 0x30 }
  - { offsetInCU: 0x10871, offset: 0x3414A, size: 0x8, addend: 0x0, symName: __ZNSt3__114__split_bufferIP4TreeNS_9allocatorIS2_EEE7__allocB7v160006Ev, symObjAddr: 0xAEE0, symBinAddr: 0x1000164D0, symSize: 0x20 }
  - { offsetInCU: 0x10895, offset: 0x3416E, size: 0x8, addend: 0x0, symName: __ZNKSt3__114__split_bufferIP4TreeNS_9allocatorIS2_EEE8capacityB7v160006Ev, symObjAddr: 0xAF00, symBinAddr: 0x1000164F0, symSize: 0x30 }
  - { offsetInCU: 0x108B9, offset: 0x34192, size: 0x8, addend: 0x0, symName: __ZNSt3__114__split_bufferIP4TreeNS_9allocatorIS2_EEE17__destruct_at_endB7v160006EPS2_, symObjAddr: 0xAF30, symBinAddr: 0x100016520, symSize: 0x30 }
  - { offsetInCU: 0x108EA, offset: 0x341C3, size: 0x8, addend: 0x0, symName: __ZNSt3__114__split_bufferIP4TreeNS_9allocatorIS2_EEE17__destruct_at_endB7v160006EPS2_NS_17integral_constantIbLb0EEE, symObjAddr: 0xAF60, symBinAddr: 0x100016550, symSize: 0x80 }
  - { offsetInCU: 0x1092B, offset: 0x34204, size: 0x8, addend: 0x0, symName: __ZNSt3__116allocator_traitsINS_9allocatorIP4TreeEEE7destroyB7v160006IS3_vEEvRS4_PT_, symObjAddr: 0xAFE0, symBinAddr: 0x1000165D0, symSize: 0x30 }
  - { offsetInCU: 0x10967, offset: 0x34240, size: 0x8, addend: 0x0, symName: __ZNSt3__19allocatorIP4TreeE7destroyB7v160006EPS2_, symObjAddr: 0xB020, symBinAddr: 0x100016610, symSize: 0x10 }
  - { offsetInCU: 0x10999, offset: 0x34272, size: 0x8, addend: 0x0, symName: __ZNSt3__19allocatorIP4TreeE10deallocateB7v160006EPS2_m, symObjAddr: 0xB030, symBinAddr: 0x100016620, symSize: 0x70 }
  - { offsetInCU: 0x109D9, offset: 0x342B2, size: 0x8, addend: 0x0, symName: __ZNSt3__117__compressed_pairIPP4TreeNS_9allocatorIS2_EEE6secondB7v160006Ev, symObjAddr: 0xB0A0, symBinAddr: 0x100016690, symSize: 0x20 }
  - { offsetInCU: 0x109FD, offset: 0x342D6, size: 0x8, addend: 0x0, symName: __ZNSt3__122__compressed_pair_elemINS_9allocatorIP4TreeEELi1ELb1EE5__getB7v160006Ev, symObjAddr: 0xB0C0, symBinAddr: 0x1000166B0, symSize: 0x10 }
  - { offsetInCU: 0x10A21, offset: 0x342FA, size: 0x8, addend: 0x0, symName: __ZNKSt3__114__split_bufferIP4TreeNS_9allocatorIS2_EEE9__end_capB7v160006Ev, symObjAddr: 0xB0D0, symBinAddr: 0x1000166C0, symSize: 0x20 }
  - { offsetInCU: 0x10A45, offset: 0x3431E, size: 0x8, addend: 0x0, symName: __ZNKSt3__117__compressed_pairIPP4TreeNS_9allocatorIS2_EEE5firstB7v160006Ev, symObjAddr: 0xB0F0, symBinAddr: 0x1000166E0, symSize: 0x20 }
  - { offsetInCU: 0x10A69, offset: 0x34342, size: 0x8, addend: 0x0, symName: __ZNKSt3__122__compressed_pair_elemIPP4TreeLi0ELb0EE5__getB7v160006Ev, symObjAddr: 0xB110, symBinAddr: 0x100016700, symSize: 0x10 }
  - { offsetInCU: 0x10A8D, offset: 0x34366, size: 0x8, addend: 0x0, symName: __ZN4Tree4NodeC2Ev, symObjAddr: 0xB120, symBinAddr: 0x100016710, symSize: 0x70 }
  - { offsetInCU: 0x10AB5, offset: 0x3438E, size: 0x8, addend: 0x0, symName: __ZNSt3__112basic_stringIcNS_11char_traitsIcEENS_9allocatorIcEEE6appendB7v160006ERKS5_, symObjAddr: 0xB720, symBinAddr: 0x100016780, symSize: 0x50 }
  - { offsetInCU: 0x10AE7, offset: 0x343C0, size: 0x8, addend: 0x0, symName: __ZNSt3__15dequeI4TreeNS_9allocatorIS1_EEE4backEv, symObjAddr: 0xC580, symBinAddr: 0x1000167D0, symSize: 0x60 }
  - { offsetInCU: 0x10B1D, offset: 0x343F6, size: 0x8, addend: 0x0, symName: __ZNSt3__15dequeI4TreeNS_9allocatorIS1_EEE8pop_backEv, symObjAddr: 0xC5E0, symBinAddr: 0x100016830, symSize: 0xA0 }
  - { offsetInCU: 0x10B63, offset: 0x3443C, size: 0x8, addend: 0x0, symName: __ZNSt3__15dequeI4TreeNS_9allocatorIS1_EEE25__maybe_remove_back_spareB7v160006Eb, symObjAddr: 0xC680, symBinAddr: 0x1000168D0, symSize: 0xA0 }
  - { offsetInCU: 0x10B96, offset: 0x3446F, size: 0x8, addend: 0x0, symName: __ZNKSt3__15dequeI4TreeNS_9allocatorIS1_EEE19__back_spare_blocksB7v160006Ev, symObjAddr: 0xC720, symBinAddr: 0x100016970, symSize: 0x20 }
  - { offsetInCU: 0x10BBA, offset: 0x34493, size: 0x8, addend: 0x0, symName: __ZNSt3__114__split_bufferIP4TreeNS_9allocatorIS2_EEE4backB7v160006Ev, symObjAddr: 0xC740, symBinAddr: 0x100016990, symSize: 0x20 }
  - { offsetInCU: 0x10BDE, offset: 0x344B7, size: 0x8, addend: 0x0, symName: __ZNSt3__114__split_bufferIP4TreeNS_9allocatorIS2_EEE8pop_backB7v160006Ev, symObjAddr: 0xC760, symBinAddr: 0x1000169B0, symSize: 0x30 }
  - { offsetInCU: 0x10C02, offset: 0x344DB, size: 0x8, addend: 0x0, symName: __ZNKSt3__15dequeI4TreeNS_9allocatorIS1_EEE12__back_spareB7v160006Ev, symObjAddr: 0xC790, symBinAddr: 0x1000169E0, symSize: 0x50 }
  - { offsetInCU: 0x10C26, offset: 0x344FF, size: 0x8, addend: 0x0, symName: __ZNKSt3__15dequeI4TreeNS_9allocatorIS1_EEE10__capacityB7v160006Ev, symObjAddr: 0xC7E0, symBinAddr: 0x100016A30, symSize: 0x50 }
  - { offsetInCU: 0x10C49, offset: 0x34522, size: 0x8, addend: 0x0, symName: __ZNSt3__15dequeI4TreeNS_9allocatorIS1_EEE9push_backERKS1_, symObjAddr: 0xC830, symBinAddr: 0x100016A80, symSize: 0x90 }
  - { offsetInCU: 0x10C8E, offset: 0x34567, size: 0x8, addend: 0x0, symName: __ZNSt3__15dequeI4TreeNS_9allocatorIS1_EEE19__add_back_capacityEv, symObjAddr: 0xC8C0, symBinAddr: 0x100016B10, symSize: 0x3A0 }
  - { offsetInCU: 0x10D47, offset: 0x34620, size: 0x8, addend: 0x0, symName: __ZNKSt3__15dequeI4TreeNS_9allocatorIS1_EEE13__front_spareB7v160006Ev, symObjAddr: 0xCC60, symBinAddr: 0x100016EB0, symSize: 0x20 }
  - { offsetInCU: 0x10D6A, offset: 0x34643, size: 0x8, addend: 0x0, symName: __ZNSt3__114__split_bufferIP4TreeNS_9allocatorIS2_EEE9push_backB7v160006ERKS2_, symObjAddr: 0xCC80, symBinAddr: 0x100016ED0, symSize: 0x2B0 }
  - { offsetInCU: 0x10DE4, offset: 0x346BD, size: 0x8, addend: 0x0, symName: __ZNKSt3__114__split_bufferIP4TreeNS_9allocatorIS2_EEE12__back_spareB7v160006Ev, symObjAddr: 0xCF30, symBinAddr: 0x100017180, symSize: 0x40 }
  - { offsetInCU: 0x10E07, offset: 0x346E0, size: 0x8, addend: 0x0, symName: __ZNSt3__114__split_bufferIP4TreeNS_9allocatorIS2_EEE9push_backEOS2_, symObjAddr: 0xCF70, symBinAddr: 0x1000171C0, symSize: 0x2B0 }
  - { offsetInCU: 0x10E81, offset: 0x3475A, size: 0x8, addend: 0x0, symName: __ZNSt3__116allocator_traitsINS_9allocatorI4TreeEEE8allocateB7v160006ERS3_m, symObjAddr: 0xD220, symBinAddr: 0x100017470, symSize: 0x30 }
  - { offsetInCU: 0x10EB2, offset: 0x3478B, size: 0x8, addend: 0x0, symName: __ZNSt3__114__split_bufferIP4TreeNS_9allocatorIS2_EEE10push_frontEOS2_, symObjAddr: 0xD250, symBinAddr: 0x1000174A0, symSize: 0x280 }
  - { offsetInCU: 0x10F2C, offset: 0x34805, size: 0x8, addend: 0x0, symName: __ZNSt3__114__split_bufferIP4TreeRNS_9allocatorIS2_EEEC1EmmS5_, symObjAddr: 0xD4D0, symBinAddr: 0x100017720, symSize: 0x40 }
  - { offsetInCU: 0x10F86, offset: 0x3485F, size: 0x8, addend: 0x0, symName: __ZNSt3__122__allocator_destructorINS_9allocatorI4TreeEEEC1B7v160006ERS3_m, symObjAddr: 0xD510, symBinAddr: 0x100017760, symSize: 0x30 }
  - { offsetInCU: 0x11038, offset: 0x34911, size: 0x8, addend: 0x0, symName: __ZNSt3__110unique_ptrIP4TreeNS_22__allocator_destructorINS_9allocatorIS1_EEEEEC1B7v160006ILb1EvEES2_NS_16__dependent_typeINS_27__unique_ptr_deleter_sfinaeIS6_EEXT_EE20__good_rval_ref_typeE, symObjAddr: 0xD540, symBinAddr: 0x100017790, symSize: 0x30 }
  - { offsetInCU: 0x11086, offset: 0x3495F, size: 0x8, addend: 0x0, symName: __ZNSt3__114__split_bufferIP4TreeRNS_9allocatorIS2_EEE9push_backEOS2_, symObjAddr: 0xD570, symBinAddr: 0x1000177C0, symSize: 0x2B0 }
  - { offsetInCU: 0x11100, offset: 0x349D9, size: 0x8, addend: 0x0, symName: __ZNKSt3__110unique_ptrIP4TreeNS_22__allocator_destructorINS_9allocatorIS1_EEEEE3getB7v160006Ev, symObjAddr: 0xD820, symBinAddr: 0x100017A70, symSize: 0x20 }
  - { offsetInCU: 0x11124, offset: 0x349FD, size: 0x8, addend: 0x0, symName: __ZNSt3__110unique_ptrIP4TreeNS_22__allocator_destructorINS_9allocatorIS1_EEEEE7releaseB7v160006Ev, symObjAddr: 0xD840, symBinAddr: 0x100017A90, symSize: 0x40 }
  - { offsetInCU: 0x11156, offset: 0x34A2F, size: 0x8, addend: 0x0, symName: __ZNSt3__114__split_bufferIP4TreeRNS_9allocatorIS2_EEE10push_frontERKS2_, symObjAddr: 0xD880, symBinAddr: 0x100017AD0, symSize: 0x280 }
  - { offsetInCU: 0x111D0, offset: 0x34AA9, size: 0x8, addend: 0x0, symName: __ZNSt3__114__split_bufferIP4TreeNS_9allocatorIS2_EEE9__end_capB7v160006Ev, symObjAddr: 0xDB40, symBinAddr: 0x100017D90, symSize: 0x20 }
  - { offsetInCU: 0x111F4, offset: 0x34ACD, size: 0x8, addend: 0x0, symName: __ZNSt3__114__split_bufferIP4TreeRNS_9allocatorIS2_EEE9__end_capB7v160006Ev, symObjAddr: 0xDB60, symBinAddr: 0x100017DB0, symSize: 0x20 }
  - { offsetInCU: 0x11218, offset: 0x34AF1, size: 0x8, addend: 0x0, symName: __ZNSt3__110unique_ptrIP4TreeNS_22__allocator_destructorINS_9allocatorIS1_EEEEED1B7v160006Ev, symObjAddr: 0xDB80, symBinAddr: 0x100017DD0, symSize: 0x20 }
  - { offsetInCU: 0x11240, offset: 0x34B19, size: 0x8, addend: 0x0, symName: __ZNSt3__114__split_bufferIP4TreeRNS_9allocatorIS2_EEED1Ev, symObjAddr: 0xDBA0, symBinAddr: 0x100017DF0, symSize: 0x20 }
  - { offsetInCU: 0x1126A, offset: 0x34B43, size: 0x8, addend: 0x0, symName: __ZNSt3__114__split_bufferIP4TreeRNS_9allocatorIS2_EEE18__construct_at_endINS_13move_iteratorIPS2_EEEENS_9enable_ifIXsr27__is_cpp17_forward_iteratorIT_EE5valueEvE4typeESC_SC_, symObjAddr: 0xDC00, symBinAddr: 0x100017E50, symSize: 0x110 }
  - { offsetInCU: 0x112C6, offset: 0x34B9F, size: 0x8, addend: 0x0, symName: __ZNSt3__113move_iteratorIPP4TreeEC1B7v160006ES3_, symObjAddr: 0xDD10, symBinAddr: 0x100017F60, symSize: 0x30 }
  - { offsetInCU: 0x112FC, offset: 0x34BD5, size: 0x8, addend: 0x0, symName: __ZNSt3__116allocator_traitsINS_9allocatorIP4TreeEEE9constructB7v160006IS3_JRKS3_EvEEvRS4_PT_DpOT0_, symObjAddr: 0xDD40, symBinAddr: 0x100017F90, symSize: 0x30 }
  - { offsetInCU: 0x11375, offset: 0x34C4E, size: 0x8, addend: 0x0, symName: __ZNKSt3__114__move_trivialclB7v160006IP4TreeS3_Li0EEENS_4pairIPT_PT0_EES6_S6_S8_, symObjAddr: 0xDF10, symBinAddr: 0x100018160, symSize: 0x40 }
  - { offsetInCU: 0x113DB, offset: 0x34CB4, size: 0x8, addend: 0x0, symName: __ZNSt3__14pairIPP4TreeS3_EC1B7v160006ERKS3_S6_, symObjAddr: 0xE0C0, symBinAddr: 0x100018310, symSize: 0x30 }
  - { offsetInCU: 0x1141F, offset: 0x34CF8, size: 0x8, addend: 0x0, symName: __ZNSt3__14pairIPP4TreeS3_EC2B7v160006ERKS3_S6_, symObjAddr: 0xE0F0, symBinAddr: 0x100018340, symSize: 0x30 }
  - { offsetInCU: 0x11463, offset: 0x34D3C, size: 0x8, addend: 0x0, symName: __ZNSt3__118__unwrap_iter_implIPP4TreeLb1EE8__unwrapB7v160006ES3_, symObjAddr: 0xE120, symBinAddr: 0x100018370, symSize: 0x20 }
  - { offsetInCU: 0x11485, offset: 0x34D5E, size: 0x8, addend: 0x0, symName: __ZNSt3__118__unwrap_iter_implIPP4TreeLb1EE8__rewrapB7v160006ES3_S3_, symObjAddr: 0xE140, symBinAddr: 0x100018390, symSize: 0x50 }
  - { offsetInCU: 0x114BF, offset: 0x34D98, size: 0x8, addend: 0x0, symName: __ZNSt3__114__split_bufferIP4TreeRNS_9allocatorIS2_EEE21_ConstructTransactionC1B7v160006EPPS2_m, symObjAddr: 0xE1D0, symBinAddr: 0x100018420, symSize: 0x30 }
  - { offsetInCU: 0x11503, offset: 0x34DDC, size: 0x8, addend: 0x0, symName: __ZNSt3__116allocator_traitsINS_9allocatorIP4TreeEEE9constructB7v160006IS3_JS3_EvEEvRS4_PT_DpOT0_, symObjAddr: 0xE200, symBinAddr: 0x100018450, symSize: 0x30 }
  - { offsetInCU: 0x11559, offset: 0x34E32, size: 0x8, addend: 0x0, symName: __ZNSt3__114__split_bufferIP4TreeRNS_9allocatorIS2_EEE7__allocB7v160006Ev, symObjAddr: 0xE230, symBinAddr: 0x100018480, symSize: 0x20 }
  - { offsetInCU: 0x1157D, offset: 0x34E56, size: 0x8, addend: 0x0, symName: __ZNKSt3__113move_iteratorIPP4TreeEdeB7v160006Ev, symObjAddr: 0xE250, symBinAddr: 0x1000184A0, symSize: 0x20 }
  - { offsetInCU: 0x115A1, offset: 0x34E7A, size: 0x8, addend: 0x0, symName: __ZNSt3__113move_iteratorIPP4TreeEppB7v160006Ev, symObjAddr: 0xE270, symBinAddr: 0x1000184C0, symSize: 0x20 }
  - { offsetInCU: 0x115C5, offset: 0x34E9E, size: 0x8, addend: 0x0, symName: __ZNSt3__114__split_bufferIP4TreeRNS_9allocatorIS2_EEE21_ConstructTransactionD1B7v160006Ev, symObjAddr: 0xE290, symBinAddr: 0x1000184E0, symSize: 0x20 }
  - { offsetInCU: 0x115ED, offset: 0x34EC6, size: 0x8, addend: 0x0, symName: __ZNKSt3__113move_iteratorIPP4TreeE4baseB7v160006Ev, symObjAddr: 0xE320, symBinAddr: 0x100018570, symSize: 0x20 }
  - { offsetInCU: 0x11611, offset: 0x34EEA, size: 0x8, addend: 0x0, symName: __ZNSt3__114__split_bufferIP4TreeRNS_9allocatorIS2_EEE21_ConstructTransactionC2B7v160006EPPS2_m, symObjAddr: 0xE340, symBinAddr: 0x100018590, symSize: 0x40 }
  - { offsetInCU: 0x11655, offset: 0x34F2E, size: 0x8, addend: 0x0, symName: __ZNSt3__19allocatorIP4TreeE9constructB7v160006IS2_JS2_EEEvPT_DpOT0_, symObjAddr: 0xE380, symBinAddr: 0x1000185D0, symSize: 0x20 }
  - { offsetInCU: 0x116A9, offset: 0x34F82, size: 0x8, addend: 0x0, symName: __ZNSt3__117__compressed_pairIPP4TreeRNS_9allocatorIS2_EEE6secondB7v160006Ev, symObjAddr: 0xE3A0, symBinAddr: 0x1000185F0, symSize: 0x20 }
  - { offsetInCU: 0x116CD, offset: 0x34FA6, size: 0x8, addend: 0x0, symName: __ZNSt3__122__compressed_pair_elemIRNS_9allocatorIP4TreeEELi1ELb0EE5__getB7v160006Ev, symObjAddr: 0xE3C0, symBinAddr: 0x100018610, symSize: 0x20 }
  - { offsetInCU: 0x116F1, offset: 0x34FCA, size: 0x8, addend: 0x0, symName: __ZNSt3__114__split_bufferIP4TreeRNS_9allocatorIS2_EEE21_ConstructTransactionD2B7v160006Ev, symObjAddr: 0xE3E0, symBinAddr: 0x100018630, symSize: 0x20 }
  - { offsetInCU: 0x11719, offset: 0x34FF2, size: 0x8, addend: 0x0, symName: __ZNSt3__113move_iteratorIPP4TreeEC2B7v160006ES3_, symObjAddr: 0xE400, symBinAddr: 0x100018650, symSize: 0x20 }
  - { offsetInCU: 0x1174F, offset: 0x35028, size: 0x8, addend: 0x0, symName: __ZNSt3__19allocatorIP4TreeE9constructB7v160006IS2_JRKS2_EEEvPT_DpOT0_, symObjAddr: 0xE420, symBinAddr: 0x100018670, symSize: 0x20 }
  - { offsetInCU: 0x117AD, offset: 0x35086, size: 0x8, addend: 0x0, symName: __ZNKSt3__123__move_backward_trivialclB7v160006IP4TreeS3_Li0EEENS_4pairIPT_PT0_EES6_S6_S8_, symObjAddr: 0xE5D0, symBinAddr: 0x100018820, symSize: 0x40 }
  - { offsetInCU: 0x11813, offset: 0x350EC, size: 0x8, addend: 0x0, symName: __ZNSt3__114__split_bufferIP4TreeRNS_9allocatorIS2_EEEC2EmmS5_, symObjAddr: 0xE6C0, symBinAddr: 0x100018910, symSize: 0xD0 }
  - { offsetInCU: 0x11886, offset: 0x3515F, size: 0x8, addend: 0x0, symName: __ZNSt3__117__compressed_pairIPP4TreeRNS_9allocatorIS2_EEEC1B7v160006IDnS6_EEOT_OT0_, symObjAddr: 0xE790, symBinAddr: 0x1000189E0, symSize: 0x30 }
  - { offsetInCU: 0x118DC, offset: 0x351B5, size: 0x8, addend: 0x0, symName: __ZNSt3__117__compressed_pairIPP4TreeRNS_9allocatorIS2_EEEC2B7v160006IDnS6_EEOT_OT0_, symObjAddr: 0xE800, symBinAddr: 0x100018A50, symSize: 0x40 }
  - { offsetInCU: 0x11932, offset: 0x3520B, size: 0x8, addend: 0x0, symName: __ZNSt3__122__compressed_pair_elemIPP4TreeLi0ELb0EEC2B7v160006IDnvEEOT_, symObjAddr: 0xE840, symBinAddr: 0x100018A90, symSize: 0x20 }
  - { offsetInCU: 0x11972, offset: 0x3524B, size: 0x8, addend: 0x0, symName: __ZNSt3__122__compressed_pair_elemIRNS_9allocatorIP4TreeEELi1ELb0EEC2B7v160006IS5_vEEOT_, symObjAddr: 0xE860, symBinAddr: 0x100018AB0, symSize: 0x20 }
  - { offsetInCU: 0x119B2, offset: 0x3528B, size: 0x8, addend: 0x0, symName: __ZNSt3__19allocatorIP4TreeE8allocateB7v160006Em, symObjAddr: 0xE880, symBinAddr: 0x100018AD0, symSize: 0x80 }
  - { offsetInCU: 0x119EE, offset: 0x352C7, size: 0x8, addend: 0x0, symName: __ZNSt3__116allocator_traitsINS_9allocatorIP4TreeEEE8max_sizeB7v160006IS4_vEEmRKS4_, symObjAddr: 0xE900, symBinAddr: 0x100018B50, symSize: 0x20 }
  - { offsetInCU: 0x11A1B, offset: 0x352F4, size: 0x8, addend: 0x0, symName: __ZNKSt3__19allocatorIP4TreeE8max_sizeB7v160006Ev, symObjAddr: 0xE920, symBinAddr: 0x100018B70, symSize: 0x20 }
  - { offsetInCU: 0x11A3F, offset: 0x35318, size: 0x8, addend: 0x0, symName: __ZNSt3__122__allocator_destructorINS_9allocatorI4TreeEEEC2B7v160006ERS3_m, symObjAddr: 0xE940, symBinAddr: 0x100018B90, symSize: 0x30 }
  - { offsetInCU: 0x11A83, offset: 0x3535C, size: 0x8, addend: 0x0, symName: __ZNSt3__110unique_ptrIP4TreeNS_22__allocator_destructorINS_9allocatorIS1_EEEEEC2B7v160006ILb1EvEES2_NS_16__dependent_typeINS_27__unique_ptr_deleter_sfinaeIS6_EEXT_EE20__good_rval_ref_typeE, symObjAddr: 0xE970, symBinAddr: 0x100018BC0, symSize: 0x50 }
  - { offsetInCU: 0x11AD2, offset: 0x353AB, size: 0x8, addend: 0x0, symName: __ZNSt3__117__compressed_pairIP4TreeNS_22__allocator_destructorINS_9allocatorIS1_EEEEEC1B7v160006IRS2_S6_EEOT_OT0_, symObjAddr: 0xE9C0, symBinAddr: 0x100018C10, symSize: 0x30 }
  - { offsetInCU: 0x11B28, offset: 0x35401, size: 0x8, addend: 0x0, symName: __ZNSt3__117__compressed_pairIP4TreeNS_22__allocator_destructorINS_9allocatorIS1_EEEEEC2B7v160006IRS2_S6_EEOT_OT0_, symObjAddr: 0xE9F0, symBinAddr: 0x100018C40, symSize: 0x40 }
  - { offsetInCU: 0x11B7E, offset: 0x35457, size: 0x8, addend: 0x0, symName: __ZNSt3__122__compressed_pair_elemIP4TreeLi0ELb0EEC2B7v160006IRS2_vEEOT_, symObjAddr: 0xEA30, symBinAddr: 0x100018C80, symSize: 0x20 }
  - { offsetInCU: 0x11BBE, offset: 0x35497, size: 0x8, addend: 0x0, symName: __ZNSt3__122__compressed_pair_elemINS_22__allocator_destructorINS_9allocatorI4TreeEEEELi1ELb0EEC2B7v160006IS5_vEEOT_, symObjAddr: 0xEA50, symBinAddr: 0x100018CA0, symSize: 0x30 }
  - { offsetInCU: 0x11BFE, offset: 0x354D7, size: 0x8, addend: 0x0, symName: __ZNKSt3__117__compressed_pairIP4TreeNS_22__allocator_destructorINS_9allocatorIS1_EEEEE5firstB7v160006Ev, symObjAddr: 0xEA80, symBinAddr: 0x100018CD0, symSize: 0x20 }
  - { offsetInCU: 0x11C22, offset: 0x354FB, size: 0x8, addend: 0x0, symName: __ZNSt3__117__compressed_pairIP4TreeNS_22__allocator_destructorINS_9allocatorIS1_EEEEE5firstB7v160006Ev, symObjAddr: 0xEAA0, symBinAddr: 0x100018CF0, symSize: 0x20 }
  - { offsetInCU: 0x11C46, offset: 0x3551F, size: 0x8, addend: 0x0, symName: __ZNSt3__117__compressed_pairIPP4TreeNS_9allocatorIS2_EEE5firstB7v160006Ev, symObjAddr: 0xEAC0, symBinAddr: 0x100018D10, symSize: 0x20 }
  - { offsetInCU: 0x11C6A, offset: 0x35543, size: 0x8, addend: 0x0, symName: __ZNSt3__122__compressed_pair_elemIPP4TreeLi0ELb0EE5__getB7v160006Ev, symObjAddr: 0xEAE0, symBinAddr: 0x100018D30, symSize: 0x10 }
  - { offsetInCU: 0x11C8E, offset: 0x35567, size: 0x8, addend: 0x0, symName: __ZNSt3__117__compressed_pairIPP4TreeRNS_9allocatorIS2_EEE5firstB7v160006Ev, symObjAddr: 0xEAF0, symBinAddr: 0x100018D40, symSize: 0x20 }
  - { offsetInCU: 0x11CB2, offset: 0x3558B, size: 0x8, addend: 0x0, symName: __ZNSt3__110unique_ptrIP4TreeNS_22__allocator_destructorINS_9allocatorIS1_EEEEED2B7v160006Ev, symObjAddr: 0xEB10, symBinAddr: 0x100018D60, symSize: 0x20 }
  - { offsetInCU: 0x11CDA, offset: 0x355B3, size: 0x8, addend: 0x0, symName: __ZNSt3__110unique_ptrIP4TreeNS_22__allocator_destructorINS_9allocatorIS1_EEEEE5resetB7v160006ES2_, symObjAddr: 0xEB30, symBinAddr: 0x100018D80, symSize: 0x70 }
  - { offsetInCU: 0x11D1C, offset: 0x355F5, size: 0x8, addend: 0x0, symName: __ZNSt3__117__compressed_pairIP4TreeNS_22__allocator_destructorINS_9allocatorIS1_EEEEE6secondB7v160006Ev, symObjAddr: 0xEBA0, symBinAddr: 0x100018DF0, symSize: 0x20 }
  - { offsetInCU: 0x11D40, offset: 0x35619, size: 0x8, addend: 0x0, symName: __ZNSt3__122__allocator_destructorINS_9allocatorI4TreeEEEclB7v160006EPS2_, symObjAddr: 0xEBC0, symBinAddr: 0x100018E10, symSize: 0x30 }
  - { offsetInCU: 0x11D72, offset: 0x3564B, size: 0x8, addend: 0x0, symName: __ZNSt3__122__compressed_pair_elemINS_22__allocator_destructorINS_9allocatorI4TreeEEEELi1ELb0EE5__getB7v160006Ev, symObjAddr: 0xEBF0, symBinAddr: 0x100018E40, symSize: 0x10 }
  - { offsetInCU: 0x11D96, offset: 0x3566F, size: 0x8, addend: 0x0, symName: __ZNSt3__114__split_bufferIP4TreeRNS_9allocatorIS2_EEED2Ev, symObjAddr: 0xEC00, symBinAddr: 0x100018E50, symSize: 0x60 }
  - { offsetInCU: 0x11DC1, offset: 0x3569A, size: 0x8, addend: 0x0, symName: __ZNSt3__114__split_bufferIP4TreeRNS_9allocatorIS2_EEE5clearB7v160006Ev, symObjAddr: 0xEC60, symBinAddr: 0x100018EB0, symSize: 0x20 }
  - { offsetInCU: 0x11DE5, offset: 0x356BE, size: 0x8, addend: 0x0, symName: __ZNKSt3__114__split_bufferIP4TreeRNS_9allocatorIS2_EEE8capacityB7v160006Ev, symObjAddr: 0xEC80, symBinAddr: 0x100018ED0, symSize: 0x30 }
  - { offsetInCU: 0x11E09, offset: 0x356E2, size: 0x8, addend: 0x0, symName: __ZNSt3__114__split_bufferIP4TreeRNS_9allocatorIS2_EEE17__destruct_at_endB7v160006EPS2_, symObjAddr: 0xECB0, symBinAddr: 0x100018F00, symSize: 0x30 }
  - { offsetInCU: 0x11E3A, offset: 0x35713, size: 0x8, addend: 0x0, symName: __ZNSt3__114__split_bufferIP4TreeRNS_9allocatorIS2_EEE17__destruct_at_endB7v160006EPS2_NS_17integral_constantIbLb0EEE, symObjAddr: 0xECE0, symBinAddr: 0x100018F30, symSize: 0x80 }
  - { offsetInCU: 0x11E7B, offset: 0x35754, size: 0x8, addend: 0x0, symName: __ZNKSt3__114__split_bufferIP4TreeRNS_9allocatorIS2_EEE9__end_capB7v160006Ev, symObjAddr: 0xED60, symBinAddr: 0x100018FB0, symSize: 0x20 }
  - { offsetInCU: 0x11E9F, offset: 0x35778, size: 0x8, addend: 0x0, symName: __ZNKSt3__117__compressed_pairIPP4TreeRNS_9allocatorIS2_EEE5firstB7v160006Ev, symObjAddr: 0xED80, symBinAddr: 0x100018FD0, symSize: 0x20 }
  - { offsetInCU: 0x11EC3, offset: 0x3579C, size: 0x8, addend: 0x0, symName: __ZNSt3__15stackI4TreeNS_5dequeIS1_NS_9allocatorIS1_EEEEEC2B7v160006Ev, symObjAddr: 0xEDA0, symBinAddr: 0x100018FF0, symSize: 0x20 }
  - { offsetInCU: 0x11EEB, offset: 0x357C4, size: 0x8, addend: 0x0, symName: __ZNSt3__15dequeI4TreeNS_9allocatorIS1_EEEC1B7v160006Ev, symObjAddr: 0xEDC0, symBinAddr: 0x100019010, symSize: 0x20 }
  - { offsetInCU: 0x11F13, offset: 0x357EC, size: 0x8, addend: 0x0, symName: __ZNSt3__15dequeI4TreeNS_9allocatorIS1_EEEC2B7v160006Ev, symObjAddr: 0xEDE0, symBinAddr: 0x100019030, symSize: 0x80 }
  - { offsetInCU: 0x11F3B, offset: 0x35814, size: 0x8, addend: 0x0, symName: __ZNSt3__114__split_bufferIP4TreeNS_9allocatorIS2_EEEC1Ev, symObjAddr: 0xEE60, symBinAddr: 0x1000190B0, symSize: 0x20 }
  - { offsetInCU: 0x11F6B, offset: 0x35844, size: 0x8, addend: 0x0, symName: __ZNSt3__117__compressed_pairImNS_9allocatorI4TreeEEEC1B7v160006IiNS_18__default_init_tagEEEOT_OT0_, symObjAddr: 0xEE80, symBinAddr: 0x1000190D0, symSize: 0x30 }
  - { offsetInCU: 0x11FC1, offset: 0x3589A, size: 0x8, addend: 0x0, symName: __ZNSt3__114__split_bufferIP4TreeNS_9allocatorIS2_EEEC2Ev, symObjAddr: 0xEEB0, symBinAddr: 0x100019100, symSize: 0x50 }
  - { offsetInCU: 0x11FEC, offset: 0x358C5, size: 0x8, addend: 0x0, symName: __ZNSt3__117__compressed_pairIPP4TreeNS_9allocatorIS2_EEEC1B7v160006IDnNS_18__default_init_tagEEEOT_OT0_, symObjAddr: 0xEF00, symBinAddr: 0x100019150, symSize: 0x30 }
  - { offsetInCU: 0x12042, offset: 0x3591B, size: 0x8, addend: 0x0, symName: __ZNSt3__117__compressed_pairIPP4TreeNS_9allocatorIS2_EEEC2B7v160006IDnNS_18__default_init_tagEEEOT_OT0_, symObjAddr: 0xEF30, symBinAddr: 0x100019180, symSize: 0x40 }
  - { offsetInCU: 0x12098, offset: 0x35971, size: 0x8, addend: 0x0, symName: __ZNSt3__122__compressed_pair_elemINS_9allocatorIP4TreeEELi1ELb1EEC2B7v160006ENS_18__default_init_tagE, symObjAddr: 0xEF70, symBinAddr: 0x1000191C0, symSize: 0x20 }
  - { offsetInCU: 0x120CB, offset: 0x359A4, size: 0x8, addend: 0x0, symName: __ZNSt3__19allocatorIP4TreeEC2B7v160006Ev, symObjAddr: 0xEF90, symBinAddr: 0x1000191E0, symSize: 0x20 }
  - { offsetInCU: 0x120F3, offset: 0x359CC, size: 0x8, addend: 0x0, symName: __ZNSt3__116__non_trivial_ifILb1ENS_9allocatorIP4TreeEEEC2B7v160006Ev, symObjAddr: 0xEFB0, symBinAddr: 0x100019200, symSize: 0x10 }
  - { offsetInCU: 0x1211B, offset: 0x359F4, size: 0x8, addend: 0x0, symName: __ZNSt3__117__compressed_pairImNS_9allocatorI4TreeEEEC2B7v160006IiNS_18__default_init_tagEEEOT_OT0_, symObjAddr: 0xEFC0, symBinAddr: 0x100019210, symSize: 0x40 }
  - { offsetInCU: 0x12171, offset: 0x35A4A, size: 0x8, addend: 0x0, symName: __ZNKSt3__15dequeI4TreeNS_9allocatorIS1_EEE5emptyB7v160006Ev, symObjAddr: 0xF020, symBinAddr: 0x100019250, symSize: 0x30 }
  - { offsetInCU: 0x121B3, offset: 0x35A8C, size: 0x8, addend: 0x0, symName: __ZNKSt3__113basic_ostreamIcNS_11char_traitsIcEEE6sentrycvbB7v160006Ev, symObjAddr: 0xF240, symBinAddr: 0x100019470, symSize: 0x20 }
  - { offsetInCU: 0x121D7, offset: 0x35AB0, size: 0x8, addend: 0x0, symName: __ZNSt3__119ostreambuf_iteratorIcNS_11char_traitsIcEEEC1B7v160006ERNS_13basic_ostreamIcS2_EE, symObjAddr: 0xF480, symBinAddr: 0x1000196B0, symSize: 0x30 }
  - { offsetInCU: 0x1220C, offset: 0x35AE5, size: 0x8, addend: 0x0, symName: __ZNKSt3__18ios_base5flagsB7v160006Ev, symObjAddr: 0xF4B0, symBinAddr: 0x1000196E0, symSize: 0x20 }
  - { offsetInCU: 0x12233, offset: 0x35B0C, size: 0x8, addend: 0x0, symName: __ZNKSt3__19basic_iosIcNS_11char_traitsIcEEE4fillB7v160006Ev, symObjAddr: 0xF4D0, symBinAddr: 0x100019700, symSize: 0x70 }
  - { offsetInCU: 0x1225B, offset: 0x35B34, size: 0x8, addend: 0x0, symName: __ZNKSt3__119ostreambuf_iteratorIcNS_11char_traitsIcEEE6failedB7v160006Ev, symObjAddr: 0xF540, symBinAddr: 0x100019770, symSize: 0x20 }
  - { offsetInCU: 0x1227F, offset: 0x35B58, size: 0x8, addend: 0x0, symName: __ZNSt3__19basic_iosIcNS_11char_traitsIcEEE8setstateB7v160006Ej, symObjAddr: 0xF560, symBinAddr: 0x100019790, symSize: 0x30 }
  - { offsetInCU: 0x122B1, offset: 0x35B8A, size: 0x8, addend: 0x0, symName: __ZNKSt3__18ios_base5widthB7v160006Ev, symObjAddr: 0xF590, symBinAddr: 0x1000197C0, symSize: 0x20 }
  - { offsetInCU: 0x122D9, offset: 0x35BB2, size: 0x8, addend: 0x0, symName: __ZNSt3__115basic_streambufIcNS_11char_traitsIcEEE5sputnB7v160006EPKcl, symObjAddr: 0xF5B0, symBinAddr: 0x1000197E0, symSize: 0x30 }
  - { offsetInCU: 0x12319, offset: 0x35BF2, size: 0x8, addend: 0x0, symName: __ZNSt3__112basic_stringIcNS_11char_traitsIcEENS_9allocatorIcEEEC1B7v160006Emc, symObjAddr: 0xF5E0, symBinAddr: 0x100019810, symSize: 0x30 }
  - { offsetInCU: 0x1235E, offset: 0x35C37, size: 0x8, addend: 0x0, symName: __ZNSt3__18ios_base5widthB7v160006El, symObjAddr: 0xF610, symBinAddr: 0x100019840, symSize: 0x30 }
  - { offsetInCU: 0x123A4, offset: 0x35C7D, size: 0x8, addend: 0x0, symName: __ZNSt3__112basic_stringIcNS_11char_traitsIcEENS_9allocatorIcEEEC2B7v160006Emc, symObjAddr: 0xF640, symBinAddr: 0x100019870, symSize: 0x50 }
  - { offsetInCU: 0x123EA, offset: 0x35CC3, size: 0x8, addend: 0x0, symName: __ZNSt3__119ostreambuf_iteratorIcNS_11char_traitsIcEEEC2B7v160006ERNS_13basic_ostreamIcS2_EE, symObjAddr: 0xF690, symBinAddr: 0x1000198C0, symSize: 0x60 }
  - { offsetInCU: 0x1241F, offset: 0x35CF8, size: 0x8, addend: 0x0, symName: __ZNKSt3__19basic_iosIcNS_11char_traitsIcEEE5rdbufB7v160006Ev, symObjAddr: 0xF6F0, symBinAddr: 0x100019920, symSize: 0x20 }
  - { offsetInCU: 0x12447, offset: 0x35D20, size: 0x8, addend: 0x0, symName: __ZNKSt3__18ios_base5rdbufB7v160006Ev, symObjAddr: 0xF710, symBinAddr: 0x100019940, symSize: 0x20 }
  - { offsetInCU: 0x1246B, offset: 0x35D44, size: 0x8, addend: 0x0, symName: __ZNSt3__111char_traitsIcE11eq_int_typeEii, symObjAddr: 0xF730, symBinAddr: 0x100019960, symSize: 0x20 }
  - { offsetInCU: 0x1249B, offset: 0x35D74, size: 0x8, addend: 0x0, symName: __ZNSt3__111char_traitsIcE3eofEv, symObjAddr: 0xF750, symBinAddr: 0x100019980, symSize: 0x10 }
  - { offsetInCU: 0x124AE, offset: 0x35D87, size: 0x8, addend: 0x0, symName: __ZNKSt3__19basic_iosIcNS_11char_traitsIcEEE5widenB7v160006Ec, symObjAddr: 0xF760, symBinAddr: 0x100019990, symSize: 0x90 }
  - { offsetInCU: 0x1251C, offset: 0x35DF5, size: 0x8, addend: 0x0, symName: __ZNKSt3__15ctypeIcE5widenB7v160006Ec, symObjAddr: 0xF820, symBinAddr: 0x100019A50, symSize: 0x30 }
  - { offsetInCU: 0x1254E, offset: 0x35E27, size: 0x8, addend: 0x0, symName: __ZNSt3__18ios_base8setstateB7v160006Ej, symObjAddr: 0xF850, symBinAddr: 0x100019A80, symSize: 0x24 }
  - { offsetInCU: 0x8DEF, offset: 0x3ED89, size: 0x8, addend: 0x0, symName: __ZNSt3__119__debug_db_insert_cB7v160006INS_6vectorINS_13unordered_mapINS_12basic_stringIcNS_11char_traitsIcEENS_9allocatorIcEEEE4TreeNS_4hashIS8_EENS_8equal_toIS8_EENS6_INS_4pairIKS8_S9_EEEEEENS6_ISI_EEEEEEvPT_, symObjAddr: 0xBB0, symBinAddr: 0x10001A570, symSize: 0x10 }
  - { offsetInCU: 0x8E20, offset: 0x3EDBA, size: 0x8, addend: 0x0, symName: __ZNSt3__118__debug_db_erase_cB7v160006INS_6vectorINS_13unordered_mapINS_12basic_stringIcNS_11char_traitsIcEENS_9allocatorIcEEEE4TreeNS_4hashIS8_EENS_8equal_toIS8_EENS6_INS_4pairIKS8_S9_EEEEEENS6_ISI_EEEEEEvPT_, symObjAddr: 0xE70, symBinAddr: 0x10001A830, symSize: 0x10 }
  - { offsetInCU: 0x8E51, offset: 0x3EDEB, size: 0x8, addend: 0x0, symName: __ZNSt3__112__to_addressB7v160006INS_13unordered_mapINS_12basic_stringIcNS_11char_traitsIcEENS_9allocatorIcEEEE4TreeNS_4hashIS7_EENS_8equal_toIS7_EENS5_INS_4pairIKS7_S8_EEEEEEEEPT_SJ_, symObjAddr: 0xFA0, symBinAddr: 0x10001A960, symSize: 0x10 }
  - { offsetInCU: 0x8E86, offset: 0x3EE20, size: 0x8, addend: 0x0, symName: __ZNSt3__118__debug_db_erase_cB7v160006INS_12__hash_tableINS_17__hash_value_typeINS_12basic_stringIcNS_11char_traitsIcEENS_9allocatorIcEEEE4TreeEENS_22__unordered_map_hasherIS8_SA_NS_4hashIS8_EENS_8equal_toIS8_EELb1EEENS_21__unordered_map_equalIS8_SA_SF_SD_Lb1EEENS6_ISA_EEEEEEvPT_, symObjAddr: 0x1240, symBinAddr: 0x10001AC00, symSize: 0x10 }
  - { offsetInCU: 0xBABF, offset: 0x41A59, size: 0x8, addend: 0x0, symName: __ZN8Semantic13analyzeAssignER4Tree, symObjAddr: 0x0, symBinAddr: 0x100019AB0, symSize: 0x150 }
  - { offsetInCU: 0xBB14, offset: 0x41AAE, size: 0x8, addend: 0x0, symName: __ZN4Tree4sizeEv, symObjAddr: 0x150, symBinAddr: 0x100019C00, symSize: 0x20 }
  - { offsetInCU: 0xBB38, offset: 0x41AD2, size: 0x8, addend: 0x0, symName: __ZN8Semantic15analyzeFunctionER4Tree, symObjAddr: 0x1A0, symBinAddr: 0x100019C20, symSize: 0x80 }
  - { offsetInCU: 0xBB8D, offset: 0x41B27, size: 0x8, addend: 0x0, symName: __ZN8Semantic11analyzeNodeER4Tree, symObjAddr: 0x220, symBinAddr: 0x100019CA0, symSize: 0x150 }
  - { offsetInCU: 0xBBE2, offset: 0x41B7C, size: 0x8, addend: 0x0, symName: __ZN8Semantic9analyzeIfER4Tree, symObjAddr: 0x370, symBinAddr: 0x100019DF0, symSize: 0x120 }
  - { offsetInCU: 0xBC19, offset: 0x41BB3, size: 0x8, addend: 0x0, symName: __ZN8Semantic10analyzeForER4Tree, symObjAddr: 0x490, symBinAddr: 0x100019F10, symSize: 0x170 }
  - { offsetInCU: 0xBC6E, offset: 0x41C08, size: 0x8, addend: 0x0, symName: __ZN8Semantic12analyzeWhileER4Tree, symObjAddr: 0x600, symBinAddr: 0x10001A080, symSize: 0xE0 }
  - { offsetInCU: 0xBCA5, offset: 0x41C3F, size: 0x8, addend: 0x0, symName: __ZN8Semantic19analyzeFunctionCallER4Tree, symObjAddr: 0x6E0, symBinAddr: 0x10001A160, symSize: 0x1A0 }
  - { offsetInCU: 0xBD09, offset: 0x41CA3, size: 0x8, addend: 0x0, symName: __ZN8Semantic7analyzeEP6Syntax, symObjAddr: 0x8B0, symBinAddr: 0x10001A300, symSize: 0xF0 }
  - { offsetInCU: 0xBD65, offset: 0x41CFF, size: 0x8, addend: 0x0, symName: __ZN8SemanticC2Ev, symObjAddr: 0xA10, symBinAddr: 0x10001A3F0, symSize: 0x60 }
  - { offsetInCU: 0xBD91, offset: 0x41D2B, size: 0x8, addend: 0x0, symName: __ZN11SymbolTableC1Ev, symObjAddr: 0xA70, symBinAddr: 0x10001A450, symSize: 0x20 }
  - { offsetInCU: 0xBDBB, offset: 0x41D55, size: 0x8, addend: 0x0, symName: __ZN11SymbolTableD1Ev, symObjAddr: 0xA90, symBinAddr: 0x10001A470, symSize: 0x20 }
  - { offsetInCU: 0xBDE5, offset: 0x41D7F, size: 0x8, addend: 0x0, symName: __ZN8SemanticC1Ev, symObjAddr: 0xAB0, symBinAddr: 0x10001A490, symSize: 0x20 }
  - { offsetInCU: 0xBE11, offset: 0x41DAB, size: 0x8, addend: 0x0, symName: __ZN11SymbolTableC2Ev, symObjAddr: 0xAF0, symBinAddr: 0x10001A4B0, symSize: 0x20 }
  - { offsetInCU: 0xBE3B, offset: 0x41DD5, size: 0x8, addend: 0x0, symName: __ZNSt3__16vectorINS_13unordered_mapINS_12basic_stringIcNS_11char_traitsIcEENS_9allocatorIcEEEE4TreeNS_4hashIS7_EENS_8equal_toIS7_EENS5_INS_4pairIKS7_S8_EEEEEENS5_ISH_EEEC1B7v160006Ev, symObjAddr: 0xB10, symBinAddr: 0x10001A4D0, symSize: 0x20 }
  - { offsetInCU: 0xBE63, offset: 0x41DFD, size: 0x8, addend: 0x0, symName: __ZNSt3__16vectorINS_13unordered_mapINS_12basic_stringIcNS_11char_traitsIcEENS_9allocatorIcEEEE4TreeNS_4hashIS7_EENS_8equal_toIS7_EENS5_INS_4pairIKS7_S8_EEEEEENS5_ISH_EEEC2B7v160006Ev, symObjAddr: 0xB30, symBinAddr: 0x10001A4F0, symSize: 0x50 }
  - { offsetInCU: 0xBE95, offset: 0x41E2F, size: 0x8, addend: 0x0, symName: __ZNSt3__117__compressed_pairIPNS_13unordered_mapINS_12basic_stringIcNS_11char_traitsIcEENS_9allocatorIcEEEE4TreeNS_4hashIS7_EENS_8equal_toIS7_EENS5_INS_4pairIKS7_S8_EEEEEENS5_ISH_EEEC1B7v160006IDnNS_18__default_init_tagEEEOT_OT0_, symObjAddr: 0xB80, symBinAddr: 0x10001A540, symSize: 0x30 }
  - { offsetInCU: 0xBEEB, offset: 0x41E85, size: 0x8, addend: 0x0, symName: __ZNSt3__117__compressed_pairIPNS_13unordered_mapINS_12basic_stringIcNS_11char_traitsIcEENS_9allocatorIcEEEE4TreeNS_4hashIS7_EENS_8equal_toIS7_EENS5_INS_4pairIKS7_S8_EEEEEENS5_ISH_EEEC2B7v160006IDnNS_18__default_init_tagEEEOT_OT0_, symObjAddr: 0xBC0, symBinAddr: 0x10001A580, symSize: 0x40 }
  - { offsetInCU: 0xBF41, offset: 0x41EDB, size: 0x8, addend: 0x0, symName: __ZNSt3__122__compressed_pair_elemIPNS_13unordered_mapINS_12basic_stringIcNS_11char_traitsIcEENS_9allocatorIcEEEE4TreeNS_4hashIS7_EENS_8equal_toIS7_EENS5_INS_4pairIKS7_S8_EEEEEELi0ELb0EEC2B7v160006IDnvEEOT_, symObjAddr: 0xC00, symBinAddr: 0x10001A5C0, symSize: 0x20 }
  - { offsetInCU: 0xBF81, offset: 0x41F1B, size: 0x8, addend: 0x0, symName: __ZNSt3__122__compressed_pair_elemINS_9allocatorINS_13unordered_mapINS_12basic_stringIcNS_11char_traitsIcEENS1_IcEEEE4TreeNS_4hashIS7_EENS_8equal_toIS7_EENS1_INS_4pairIKS7_S8_EEEEEEEELi1ELb1EEC2B7v160006ENS_18__default_init_tagE, symObjAddr: 0xC20, symBinAddr: 0x10001A5E0, symSize: 0x20 }
  - { offsetInCU: 0xBFB4, offset: 0x41F4E, size: 0x8, addend: 0x0, symName: __ZNSt3__19allocatorINS_13unordered_mapINS_12basic_stringIcNS_11char_traitsIcEENS0_IcEEEE4TreeNS_4hashIS6_EENS_8equal_toIS6_EENS0_INS_4pairIKS6_S7_EEEEEEEC2B7v160006Ev, symObjAddr: 0xC40, symBinAddr: 0x10001A600, symSize: 0x20 }
  - { offsetInCU: 0xBFDC, offset: 0x41F76, size: 0x8, addend: 0x0, symName: __ZNSt3__116__non_trivial_ifILb1ENS_9allocatorINS_13unordered_mapINS_12basic_stringIcNS_11char_traitsIcEENS1_IcEEEE4TreeNS_4hashIS7_EENS_8equal_toIS7_EENS1_INS_4pairIKS7_S8_EEEEEEEEEC2B7v160006Ev, symObjAddr: 0xC60, symBinAddr: 0x10001A620, symSize: 0x10 }
  - { offsetInCU: 0xC004, offset: 0x41F9E, size: 0x8, addend: 0x0, symName: __ZN11SymbolTableD2Ev, symObjAddr: 0xC70, symBinAddr: 0x10001A630, symSize: 0x20 }
  - { offsetInCU: 0xC02E, offset: 0x41FC8, size: 0x8, addend: 0x0, symName: __ZNSt3__16vectorINS_13unordered_mapINS_12basic_stringIcNS_11char_traitsIcEENS_9allocatorIcEEEE4TreeNS_4hashIS7_EENS_8equal_toIS7_EENS5_INS_4pairIKS7_S8_EEEEEENS5_ISH_EEED1B7v160006Ev, symObjAddr: 0xC90, symBinAddr: 0x10001A650, symSize: 0x20 }
  - { offsetInCU: 0xC056, offset: 0x41FF0, size: 0x8, addend: 0x0, symName: __ZNSt3__16vectorINS_13unordered_mapINS_12basic_stringIcNS_11char_traitsIcEENS_9allocatorIcEEEE4TreeNS_4hashIS7_EENS_8equal_toIS7_EENS5_INS_4pairIKS7_S8_EEEEEENS5_ISH_EEED2B7v160006Ev, symObjAddr: 0xCB0, symBinAddr: 0x10001A670, symSize: 0x30 }
  - { offsetInCU: 0xC07E, offset: 0x42018, size: 0x8, addend: 0x0, symName: __ZNSt3__16vectorINS_13unordered_mapINS_12basic_stringIcNS_11char_traitsIcEENS_9allocatorIcEEEE4TreeNS_4hashIS7_EENS_8equal_toIS7_EENS5_INS_4pairIKS7_S8_EEEEEENS5_ISH_EEE16__destroy_vectorC1ERSJ_, symObjAddr: 0xCE0, symBinAddr: 0x10001A6A0, symSize: 0x30 }
  - { offsetInCU: 0xC0B5, offset: 0x4204F, size: 0x8, addend: 0x0, symName: __ZNSt3__16vectorINS_13unordered_mapINS_12basic_stringIcNS_11char_traitsIcEENS_9allocatorIcEEEE4TreeNS_4hashIS7_EENS_8equal_toIS7_EENS5_INS_4pairIKS7_S8_EEEEEENS5_ISH_EEE16__destroy_vectorclB7v160006Ev, symObjAddr: 0xD10, symBinAddr: 0x10001A6D0, symSize: 0x90 }
  - { offsetInCU: 0xC0D9, offset: 0x42073, size: 0x8, addend: 0x0, symName: __ZNSt3__16vectorINS_13unordered_mapINS_12basic_stringIcNS_11char_traitsIcEENS_9allocatorIcEEEE4TreeNS_4hashIS7_EENS_8equal_toIS7_EENS5_INS_4pairIKS7_S8_EEEEEENS5_ISH_EEE16__destroy_vectorC2ERSJ_, symObjAddr: 0xDA0, symBinAddr: 0x10001A760, symSize: 0x20 }
  - { offsetInCU: 0xC110, offset: 0x420AA, size: 0x8, addend: 0x0, symName: __ZNKSt3__16vectorINS_13unordered_mapINS_12basic_stringIcNS_11char_traitsIcEENS_9allocatorIcEEEE4TreeNS_4hashIS7_EENS_8equal_toIS7_EENS5_INS_4pairIKS7_S8_EEEEEENS5_ISH_EEE17__annotate_deleteB7v160006Ev, symObjAddr: 0xDC0, symBinAddr: 0x10001A780, symSize: 0xB0 }
  - { offsetInCU: 0xC134, offset: 0x420CE, size: 0x8, addend: 0x0, symName: __ZNSt3__16vectorINS_13unordered_mapINS_12basic_stringIcNS_11char_traitsIcEENS_9allocatorIcEEEE4TreeNS_4hashIS7_EENS_8equal_toIS7_EENS5_INS_4pairIKS7_S8_EEEEEENS5_ISH_EEE7__clearB7v160006Ev, symObjAddr: 0xE80, symBinAddr: 0x10001A840, symSize: 0x20 }
  - { offsetInCU: 0xC158, offset: 0x420F2, size: 0x8, addend: 0x0, symName: __ZNSt3__116allocator_traitsINS_9allocatorINS_13unordered_mapINS_12basic_stringIcNS_11char_traitsIcEENS1_IcEEEE4TreeNS_4hashIS7_EENS_8equal_toIS7_EENS1_INS_4pairIKS7_S8_EEEEEEEEE10deallocateB7v160006ERSI_PSH_m, symObjAddr: 0xEA0, symBinAddr: 0x10001A860, symSize: 0x30 }
  - { offsetInCU: 0xC199, offset: 0x42133, size: 0x8, addend: 0x0, symName: __ZNSt3__16vectorINS_13unordered_mapINS_12basic_stringIcNS_11char_traitsIcEENS_9allocatorIcEEEE4TreeNS_4hashIS7_EENS_8equal_toIS7_EENS5_INS_4pairIKS7_S8_EEEEEENS5_ISH_EEE7__allocB7v160006Ev, symObjAddr: 0xED0, symBinAddr: 0x10001A890, symSize: 0x20 }
  - { offsetInCU: 0xC1BD, offset: 0x42157, size: 0x8, addend: 0x0, symName: __ZNKSt3__16vectorINS_13unordered_mapINS_12basic_stringIcNS_11char_traitsIcEENS_9allocatorIcEEEE4TreeNS_4hashIS7_EENS_8equal_toIS7_EENS5_INS_4pairIKS7_S8_EEEEEENS5_ISH_EEE8capacityB7v160006Ev, symObjAddr: 0xEF0, symBinAddr: 0x10001A8B0, symSize: 0x40 }
  - { offsetInCU: 0xC1E1, offset: 0x4217B, size: 0x8, addend: 0x0, symName: __ZNKSt3__16vectorINS_13unordered_mapINS_12basic_stringIcNS_11char_traitsIcEENS_9allocatorIcEEEE4TreeNS_4hashIS7_EENS_8equal_toIS7_EENS5_INS_4pairIKS7_S8_EEEEEENS5_ISH_EEE31__annotate_contiguous_containerB7v160006EPKvSL_SL_SL_, symObjAddr: 0xF30, symBinAddr: 0x10001A8F0, symSize: 0x20 }
  - { offsetInCU: 0xC231, offset: 0x421CB, size: 0x8, addend: 0x0, symName: __ZNKSt3__16vectorINS_13unordered_mapINS_12basic_stringIcNS_11char_traitsIcEENS_9allocatorIcEEEE4TreeNS_4hashIS7_EENS_8equal_toIS7_EENS5_INS_4pairIKS7_S8_EEEEEENS5_ISH_EEE4dataB7v160006Ev, symObjAddr: 0xF50, symBinAddr: 0x10001A910, symSize: 0x20 }
  - { offsetInCU: 0xC255, offset: 0x421EF, size: 0x8, addend: 0x0, symName: __ZNKSt3__16vectorINS_13unordered_mapINS_12basic_stringIcNS_11char_traitsIcEENS_9allocatorIcEEEE4TreeNS_4hashIS7_EENS_8equal_toIS7_EENS5_INS_4pairIKS7_S8_EEEEEENS5_ISH_EEE4sizeB7v160006Ev, symObjAddr: 0xF70, symBinAddr: 0x10001A930, symSize: 0x30 }
  - { offsetInCU: 0xC279, offset: 0x42213, size: 0x8, addend: 0x0, symName: __ZNSt3__16vectorINS_13unordered_mapINS_12basic_stringIcNS_11char_traitsIcEENS_9allocatorIcEEEE4TreeNS_4hashIS7_EENS_8equal_toIS7_EENS5_INS_4pairIKS7_S8_EEEEEENS5_ISH_EEE22__base_destruct_at_endB7v160006EPSH_, symObjAddr: 0xFB0, symBinAddr: 0x10001A970, symSize: 0x90 }
  - { offsetInCU: 0xC2BB, offset: 0x42255, size: 0x8, addend: 0x0, symName: __ZNSt3__116allocator_traitsINS_9allocatorINS_13unordered_mapINS_12basic_stringIcNS_11char_traitsIcEENS1_IcEEEE4TreeNS_4hashIS7_EENS_8equal_toIS7_EENS1_INS_4pairIKS7_S8_EEEEEEEEE7destroyB7v160006ISH_vEEvRSI_PT_, symObjAddr: 0x1040, symBinAddr: 0x10001AA00, symSize: 0x30 }
  - { offsetInCU: 0xC2F7, offset: 0x42291, size: 0x8, addend: 0x0, symName: __ZNSt3__19allocatorINS_13unordered_mapINS_12basic_stringIcNS_11char_traitsIcEENS0_IcEEEE4TreeNS_4hashIS6_EENS_8equal_toIS6_EENS0_INS_4pairIKS6_S7_EEEEEEE7destroyB7v160006EPSG_, symObjAddr: 0x1070, symBinAddr: 0x10001AA30, symSize: 0x20 }
  - { offsetInCU: 0xC329, offset: 0x422C3, size: 0x8, addend: 0x0, symName: __ZNSt3__113unordered_mapINS_12basic_stringIcNS_11char_traitsIcEENS_9allocatorIcEEEE4TreeNS_4hashIS6_EENS_8equal_toIS6_EENS4_INS_4pairIKS6_S7_EEEEED1B7v160006Ev, symObjAddr: 0x1090, symBinAddr: 0x10001AA50, symSize: 0x20 }
  - { offsetInCU: 0xC351, offset: 0x422EB, size: 0x8, addend: 0x0, symName: __ZNSt3__113unordered_mapINS_12basic_stringIcNS_11char_traitsIcEENS_9allocatorIcEEEE4TreeNS_4hashIS6_EENS_8equal_toIS6_EENS4_INS_4pairIKS6_S7_EEEEED2B7v160006Ev, symObjAddr: 0x10B0, symBinAddr: 0x10001AA70, symSize: 0x20 }
  - { offsetInCU: 0xC379, offset: 0x42313, size: 0x8, addend: 0x0, symName: __ZNSt3__112__hash_tableINS_17__hash_value_typeINS_12basic_stringIcNS_11char_traitsIcEENS_9allocatorIcEEEE4TreeEENS_22__unordered_map_hasherIS7_S9_NS_4hashIS7_EENS_8equal_toIS7_EELb1EEENS_21__unordered_map_equalIS7_S9_SE_SC_Lb1EEENS5_IS9_EEED1Ev, symObjAddr: 0x10D0, symBinAddr: 0x10001AA90, symSize: 0x20 }
  - { offsetInCU: 0xC3A4, offset: 0x4233E, size: 0x8, addend: 0x0, symName: __ZNSt3__112__hash_tableINS_17__hash_value_typeINS_12basic_stringIcNS_11char_traitsIcEENS_9allocatorIcEEEE4TreeEENS_22__unordered_map_hasherIS7_S9_NS_4hashIS7_EENS_8equal_toIS7_EELb1EEENS_21__unordered_map_equalIS7_S9_SE_SC_Lb1EEENS5_IS9_EEED2Ev, symObjAddr: 0x10F0, symBinAddr: 0x10001AAB0, symSize: 0x80 }
  - { offsetInCU: 0xC3CF, offset: 0x42369, size: 0x8, addend: 0x0, symName: __ZNSt3__112__hash_tableINS_17__hash_value_typeINS_12basic_stringIcNS_11char_traitsIcEENS_9allocatorIcEEEE4TreeEENS_22__unordered_map_hasherIS7_S9_NS_4hashIS7_EENS_8equal_toIS7_EELb1EEENS_21__unordered_map_equalIS7_S9_SE_SC_Lb1EEENS5_IS9_EEE17__deallocate_nodeEPNS_16__hash_node_baseIPNS_11__hash_nodeIS9_PvEEEE, symObjAddr: 0x1170, symBinAddr: 0x10001AB30, symSize: 0xB0 }
  - { offsetInCU: 0xC439, offset: 0x423D3, size: 0x8, addend: 0x0, symName: __ZNSt3__117__compressed_pairINS_16__hash_node_baseIPNS_11__hash_nodeINS_17__hash_value_typeINS_12basic_stringIcNS_11char_traitsIcEENS_9allocatorIcEEEE4TreeEEPvEEEENS7_ISD_EEE5firstB7v160006Ev, symObjAddr: 0x1220, symBinAddr: 0x10001ABE0, symSize: 0x20 }
  - { offsetInCU: 0xC45D, offset: 0x423F7, size: 0x8, addend: 0x0, symName: __ZNSt3__110unique_ptrIA_PNS_16__hash_node_baseIPNS_11__hash_nodeINS_17__hash_value_typeINS_12basic_stringIcNS_11char_traitsIcEENS_9allocatorIcEEEE4TreeEEPvEEEENS_25__bucket_list_deallocatorINS7_ISG_EEEEED1B7v160006Ev, symObjAddr: 0x1250, symBinAddr: 0x10001AC10, symSize: 0x20 }
  - { offsetInCU: 0xC485, offset: 0x4241F, size: 0x8, addend: 0x0, symName: __ZNSt3__112__hash_tableINS_17__hash_value_typeINS_12basic_stringIcNS_11char_traitsIcEENS_9allocatorIcEEEE4TreeEENS_22__unordered_map_hasherIS7_S9_NS_4hashIS7_EENS_8equal_toIS7_EELb1EEENS_21__unordered_map_equalIS7_S9_SE_SC_Lb1EEENS5_IS9_EEE12__node_allocB7v160006Ev, symObjAddr: 0x1270, symBinAddr: 0x10001AC30, symSize: 0x20 }
  - { offsetInCU: 0xC4A9, offset: 0x42443, size: 0x8, addend: 0x0, symName: __ZNSt3__116__hash_node_baseIPNS_11__hash_nodeINS_17__hash_value_typeINS_12basic_stringIcNS_11char_traitsIcEENS_9allocatorIcEEEE4TreeEEPvEEE8__upcastB7v160006Ev, symObjAddr: 0x1290, symBinAddr: 0x10001AC50, symSize: 0x20 }
  - { offsetInCU: 0xC4D2, offset: 0x4246C, size: 0x8, addend: 0x0, symName: __ZNSt3__116allocator_traitsINS_9allocatorINS_11__hash_nodeINS_17__hash_value_typeINS_12basic_stringIcNS_11char_traitsIcEENS1_IcEEEE4TreeEEPvEEEEE7destroyB7v160006INS_4pairIKS8_S9_EEvvEEvRSD_PT_, symObjAddr: 0x12B0, symBinAddr: 0x10001AC70, symSize: 0x20 }
  - { offsetInCU: 0xC50B, offset: 0x424A5, size: 0x8, addend: 0x0, symName: __ZNSt3__122__hash_key_value_typesINS_17__hash_value_typeINS_12basic_stringIcNS_11char_traitsIcEENS_9allocatorIcEEEE4TreeEEE9__get_ptrB7v160006ERS9_, symObjAddr: 0x12D0, symBinAddr: 0x10001AC90, symSize: 0x20 }
  - { offsetInCU: 0xC52D, offset: 0x424C7, size: 0x8, addend: 0x0, symName: __ZNSt3__116allocator_traitsINS_9allocatorINS_11__hash_nodeINS_17__hash_value_typeINS_12basic_stringIcNS_11char_traitsIcEENS1_IcEEEE4TreeEEPvEEEEE10deallocateB7v160006ERSD_PSC_m, symObjAddr: 0x12F0, symBinAddr: 0x10001ACB0, symSize: 0x30 }
  - { offsetInCU: 0xC56E, offset: 0x42508, size: 0x8, addend: 0x0, symName: __ZNSt3__117__compressed_pairINS_16__hash_node_baseIPNS_11__hash_nodeINS_17__hash_value_typeINS_12basic_stringIcNS_11char_traitsIcEENS_9allocatorIcEEEE4TreeEEPvEEEENS7_ISD_EEE6secondB7v160006Ev, symObjAddr: 0x1320, symBinAddr: 0x10001ACE0, symSize: 0x20 }
  - { offsetInCU: 0xC592, offset: 0x4252C, size: 0x8, addend: 0x0, symName: __ZNSt3__122__compressed_pair_elemINS_9allocatorINS_11__hash_nodeINS_17__hash_value_typeINS_12basic_stringIcNS_11char_traitsIcEENS1_IcEEEE4TreeEEPvEEEELi1ELb1EE5__getB7v160006Ev, symObjAddr: 0x1340, symBinAddr: 0x10001AD00, symSize: 0x10 }
  - { offsetInCU: 0xC5B6, offset: 0x42550, size: 0x8, addend: 0x0, symName: __ZNSt3__114pointer_traitsIPNS_16__hash_node_baseIPNS_11__hash_nodeINS_17__hash_value_typeINS_12basic_stringIcNS_11char_traitsIcEENS_9allocatorIcEEEE4TreeEEPvEEEEE10pointer_toB7v160006ERSF_, symObjAddr: 0x1350, symBinAddr: 0x10001AD10, symSize: 0x10 }
  - { offsetInCU: 0xC5D8, offset: 0x42572, size: 0x8, addend: 0x0, symName: __ZNSt3__14pairIKNS_12basic_stringIcNS_11char_traitsIcEENS_9allocatorIcEEEE4TreeED1Ev, symObjAddr: 0x1360, symBinAddr: 0x10001AD20, symSize: 0x20 }
  - { offsetInCU: 0xC602, offset: 0x4259C, size: 0x8, addend: 0x0, symName: __ZNSt3__14pairIKNS_12basic_stringIcNS_11char_traitsIcEENS_9allocatorIcEEEE4TreeED2Ev, symObjAddr: 0x1380, symBinAddr: 0x10001AD40, symSize: 0x70 }
  - { offsetInCU: 0xC62C, offset: 0x425C6, size: 0x8, addend: 0x0, symName: __ZNSt3__117__hash_value_typeINS_12basic_stringIcNS_11char_traitsIcEENS_9allocatorIcEEEE4TreeE11__get_valueB7v160006Ev, symObjAddr: 0x13F0, symBinAddr: 0x10001ADB0, symSize: 0x10 }
  - { offsetInCU: 0xC650, offset: 0x425EA, size: 0x8, addend: 0x0, symName: __ZNSt3__19allocatorINS_11__hash_nodeINS_17__hash_value_typeINS_12basic_stringIcNS_11char_traitsIcEENS0_IcEEEE4TreeEEPvEEE10deallocateB7v160006EPSB_m, symObjAddr: 0x1400, symBinAddr: 0x10001ADC0, symSize: 0x80 }
  - { offsetInCU: 0xC690, offset: 0x4262A, size: 0x8, addend: 0x0, symName: __ZNSt3__122__compressed_pair_elemINS_16__hash_node_baseIPNS_11__hash_nodeINS_17__hash_value_typeINS_12basic_stringIcNS_11char_traitsIcEENS_9allocatorIcEEEE4TreeEEPvEEEELi0ELb0EE5__getB7v160006Ev, symObjAddr: 0x1500, symBinAddr: 0x10001AE40, symSize: 0x10 }
  - { offsetInCU: 0xC6B4, offset: 0x4264E, size: 0x8, addend: 0x0, symName: __ZNSt3__110unique_ptrIA_PNS_16__hash_node_baseIPNS_11__hash_nodeINS_17__hash_value_typeINS_12basic_stringIcNS_11char_traitsIcEENS_9allocatorIcEEEE4TreeEEPvEEEENS_25__bucket_list_deallocatorINS7_ISG_EEEEED2B7v160006Ev, symObjAddr: 0x1510, symBinAddr: 0x10001AE50, symSize: 0x20 }
  - { offsetInCU: 0xC6DC, offset: 0x42676, size: 0x8, addend: 0x0, symName: __ZNSt3__110unique_ptrIA_PNS_16__hash_node_baseIPNS_11__hash_nodeINS_17__hash_value_typeINS_12basic_stringIcNS_11char_traitsIcEENS_9allocatorIcEEEE4TreeEEPvEEEENS_25__bucket_list_deallocatorINS7_ISG_EEEEE5resetB7v160006EDn, symObjAddr: 0x1530, symBinAddr: 0x10001AE70, symSize: 0x60 }
  - { offsetInCU: 0xC71A, offset: 0x426B4, size: 0x8, addend: 0x0, symName: __ZNSt3__117__compressed_pairIPPNS_16__hash_node_baseIPNS_11__hash_nodeINS_17__hash_value_typeINS_12basic_stringIcNS_11char_traitsIcEENS_9allocatorIcEEEE4TreeEEPvEEEENS_25__bucket_list_deallocatorINS7_ISG_EEEEE5firstB7v160006Ev, symObjAddr: 0x1590, symBinAddr: 0x10001AED0, symSize: 0x20 }
  - { offsetInCU: 0xC73E, offset: 0x426D8, size: 0x8, addend: 0x0, symName: __ZNSt3__117__compressed_pairIPPNS_16__hash_node_baseIPNS_11__hash_nodeINS_17__hash_value_typeINS_12basic_stringIcNS_11char_traitsIcEENS_9allocatorIcEEEE4TreeEEPvEEEENS_25__bucket_list_deallocatorINS7_ISG_EEEEE6secondB7v160006Ev, symObjAddr: 0x15B0, symBinAddr: 0x10001AEF0, symSize: 0x20 }
  - { offsetInCU: 0xC762, offset: 0x426FC, size: 0x8, addend: 0x0, symName: __ZNSt3__125__bucket_list_deallocatorINS_9allocatorIPNS_16__hash_node_baseIPNS_11__hash_nodeINS_17__hash_value_typeINS_12basic_stringIcNS_11char_traitsIcEENS1_IcEEEE4TreeEEPvEEEEEEEclB7v160006EPSG_, symObjAddr: 0x15D0, symBinAddr: 0x10001AF10, symSize: 0x50 }
  - { offsetInCU: 0xC795, offset: 0x4272F, size: 0x8, addend: 0x0, symName: __ZNSt3__122__compressed_pair_elemIPPNS_16__hash_node_baseIPNS_11__hash_nodeINS_17__hash_value_typeINS_12basic_stringIcNS_11char_traitsIcEENS_9allocatorIcEEEE4TreeEEPvEEEELi0ELb0EE5__getB7v160006Ev, symObjAddr: 0x1620, symBinAddr: 0x10001AF60, symSize: 0x10 }
  - { offsetInCU: 0xC7B9, offset: 0x42753, size: 0x8, addend: 0x0, symName: __ZNSt3__122__compressed_pair_elemINS_25__bucket_list_deallocatorINS_9allocatorIPNS_16__hash_node_baseIPNS_11__hash_nodeINS_17__hash_value_typeINS_12basic_stringIcNS_11char_traitsIcEENS2_IcEEEE4TreeEEPvEEEEEEEELi1ELb0EE5__getB7v160006Ev, symObjAddr: 0x1630, symBinAddr: 0x10001AF70, symSize: 0x10 }
  - { offsetInCU: 0xC7DD, offset: 0x42777, size: 0x8, addend: 0x0, symName: __ZNSt3__116allocator_traitsINS_9allocatorIPNS_16__hash_node_baseIPNS_11__hash_nodeINS_17__hash_value_typeINS_12basic_stringIcNS_11char_traitsIcEENS1_IcEEEE4TreeEEPvEEEEEEE10deallocateB7v160006ERSH_PSG_m, symObjAddr: 0x1640, symBinAddr: 0x10001AF80, symSize: 0x30 }
  - { offsetInCU: 0xC81E, offset: 0x427B8, size: 0x8, addend: 0x0, symName: __ZNSt3__125__bucket_list_deallocatorINS_9allocatorIPNS_16__hash_node_baseIPNS_11__hash_nodeINS_17__hash_value_typeINS_12basic_stringIcNS_11char_traitsIcEENS1_IcEEEE4TreeEEPvEEEEEEE7__allocB7v160006Ev, symObjAddr: 0x1670, symBinAddr: 0x10001AFB0, symSize: 0x20 }
  - { offsetInCU: 0xC842, offset: 0x427DC, size: 0x8, addend: 0x0, symName: __ZNSt3__125__bucket_list_deallocatorINS_9allocatorIPNS_16__hash_node_baseIPNS_11__hash_nodeINS_17__hash_value_typeINS_12basic_stringIcNS_11char_traitsIcEENS1_IcEEEE4TreeEEPvEEEEEEE4sizeB7v160006Ev, symObjAddr: 0x1690, symBinAddr: 0x10001AFD0, symSize: 0x20 }
  - { offsetInCU: 0xC866, offset: 0x42800, size: 0x8, addend: 0x0, symName: __ZNSt3__19allocatorIPNS_16__hash_node_baseIPNS_11__hash_nodeINS_17__hash_value_typeINS_12basic_stringIcNS_11char_traitsIcEENS0_IcEEEE4TreeEEPvEEEEE10deallocateB7v160006EPSF_m, symObjAddr: 0x16B0, symBinAddr: 0x10001AFF0, symSize: 0x70 }
  - { offsetInCU: 0xC8A6, offset: 0x42840, size: 0x8, addend: 0x0, symName: __ZNSt3__117__compressed_pairImNS_9allocatorIPNS_16__hash_node_baseIPNS_11__hash_nodeINS_17__hash_value_typeINS_12basic_stringIcNS_11char_traitsIcEENS1_IcEEEE4TreeEEPvEEEEEEE6secondB7v160006Ev, symObjAddr: 0x1720, symBinAddr: 0x10001B060, symSize: 0x20 }
  - { offsetInCU: 0xC8CA, offset: 0x42864, size: 0x8, addend: 0x0, symName: __ZNSt3__122__compressed_pair_elemINS_9allocatorIPNS_16__hash_node_baseIPNS_11__hash_nodeINS_17__hash_value_typeINS_12basic_stringIcNS_11char_traitsIcEENS1_IcEEEE4TreeEEPvEEEEEELi1ELb1EE5__getB7v160006Ev, symObjAddr: 0x1740, symBinAddr: 0x10001B080, symSize: 0x10 }
  - { offsetInCU: 0xC8EE, offset: 0x42888, size: 0x8, addend: 0x0, symName: __ZNSt3__117__compressed_pairImNS_9allocatorIPNS_16__hash_node_baseIPNS_11__hash_nodeINS_17__hash_value_typeINS_12basic_stringIcNS_11char_traitsIcEENS1_IcEEEE4TreeEEPvEEEEEEE5firstB7v160006Ev, symObjAddr: 0x1750, symBinAddr: 0x10001B090, symSize: 0x20 }
  - { offsetInCU: 0xC912, offset: 0x428AC, size: 0x8, addend: 0x0, symName: __ZNSt3__19allocatorINS_13unordered_mapINS_12basic_stringIcNS_11char_traitsIcEENS0_IcEEEE4TreeNS_4hashIS6_EENS_8equal_toIS6_EENS0_INS_4pairIKS6_S7_EEEEEEE10deallocateB7v160006EPSG_m, symObjAddr: 0x1780, symBinAddr: 0x10001B0B0, symSize: 0x80 }
  - { offsetInCU: 0xC952, offset: 0x428EC, size: 0x8, addend: 0x0, symName: __ZNSt3__117__compressed_pairIPNS_13unordered_mapINS_12basic_stringIcNS_11char_traitsIcEENS_9allocatorIcEEEE4TreeNS_4hashIS7_EENS_8equal_toIS7_EENS5_INS_4pairIKS7_S8_EEEEEENS5_ISH_EEE6secondB7v160006Ev, symObjAddr: 0x1800, symBinAddr: 0x10001B130, symSize: 0x20 }
  - { offsetInCU: 0xC976, offset: 0x42910, size: 0x8, addend: 0x0, symName: __ZNSt3__122__compressed_pair_elemINS_9allocatorINS_13unordered_mapINS_12basic_stringIcNS_11char_traitsIcEENS1_IcEEEE4TreeNS_4hashIS7_EENS_8equal_toIS7_EENS1_INS_4pairIKS7_S8_EEEEEEEELi1ELb1EE5__getB7v160006Ev, symObjAddr: 0x1820, symBinAddr: 0x10001B150, symSize: 0x10 }
  - { offsetInCU: 0xC99A, offset: 0x42934, size: 0x8, addend: 0x0, symName: __ZNKSt3__16vectorINS_13unordered_mapINS_12basic_stringIcNS_11char_traitsIcEENS_9allocatorIcEEEE4TreeNS_4hashIS7_EENS_8equal_toIS7_EENS5_INS_4pairIKS7_S8_EEEEEENS5_ISH_EEE9__end_capB7v160006Ev, symObjAddr: 0x1830, symBinAddr: 0x10001B160, symSize: 0x20 }
  - { offsetInCU: 0xC9BE, offset: 0x42958, size: 0x8, addend: 0x0, symName: __ZNKSt3__117__compressed_pairIPNS_13unordered_mapINS_12basic_stringIcNS_11char_traitsIcEENS_9allocatorIcEEEE4TreeNS_4hashIS7_EENS_8equal_toIS7_EENS5_INS_4pairIKS7_S8_EEEEEENS5_ISH_EEE5firstB7v160006Ev, symObjAddr: 0x1850, symBinAddr: 0x10001B180, symSize: 0x20 }
  - { offsetInCU: 0xC9E2, offset: 0x4297C, size: 0x8, addend: 0x0, symName: __ZNKSt3__122__compressed_pair_elemIPNS_13unordered_mapINS_12basic_stringIcNS_11char_traitsIcEENS_9allocatorIcEEEE4TreeNS_4hashIS7_EENS_8equal_toIS7_EENS5_INS_4pairIKS7_S8_EEEEEELi0ELb0EE5__getB7v160006Ev, symObjAddr: 0x1870, symBinAddr: 0x10001B1A0, symSize: 0x10 }
  - { offsetInCU: 0x839C, offset: 0x4AD81, size: 0x8, addend: 0x0, symName: __ZNSt3__1neB7v160006ERKNS_19__hash_map_iteratorINS_15__hash_iteratorIPNS_11__hash_nodeINS_17__hash_value_typeINS_12basic_stringIcNS_11char_traitsIcEENS_9allocatorIcEEEE4TreeEEPvEEEEEESI_, symObjAddr: 0x280, symBinAddr: 0x10001B430, symSize: 0x30 }
  - { offsetInCU: 0x83D9, offset: 0x4ADBE, size: 0x8, addend: 0x0, symName: __ZNSt3__1neB7v160006INS_11__wrap_iterIPNS_13unordered_mapINS_12basic_stringIcNS_11char_traitsIcEENS_9allocatorIcEEEE4TreeNS_4hashIS8_EENS_8equal_toIS8_EENS6_INS_4pairIKS8_S9_EEEEEEEESK_EEbRKNS_16reverse_iteratorIT_EERKNSL_IT0_EE, symObjAddr: 0x850, symBinAddr: 0x10001B8F0, symSize: 0x50 }
  - { offsetInCU: 0x8425, offset: 0x4AE0A, size: 0x8, addend: 0x0, symName: __ZNSt3__119__debug_db_insert_cB7v160006INS_13unordered_mapINS_12basic_stringIcNS_11char_traitsIcEENS_9allocatorIcEEEE4TreeNS_4hashIS7_EENS_8equal_toIS7_EENS5_INS_4pairIKS7_S8_EEEEEEEEvPT_, symObjAddr: 0xD30, symBinAddr: 0x10001BDA0, symSize: 0x10 }
  - { offsetInCU: 0x8456, offset: 0x4AE3B, size: 0x8, addend: 0x0, symName: __ZNSt3__119__allocate_at_leastB7v160006INS_9allocatorINS_13unordered_mapINS_12basic_stringIcNS_11char_traitsIcEENS1_IcEEEE4TreeNS_4hashIS7_EENS_8equal_toIS7_EENS1_INS_4pairIKS7_S8_EEEEEEEEEENS_19__allocation_resultINS_16allocator_traitsIT_E7pointerEEERSL_m, symObjAddr: 0x20C0, symBinAddr: 0x10001C740, symSize: 0x40 }
  - { offsetInCU: 0x8499, offset: 0x4AE7E, size: 0x8, addend: 0x0, symName: __ZNSt3__142__uninitialized_allocator_move_if_noexceptB7v160006INS_9allocatorINS_13unordered_mapINS_12basic_stringIcNS_11char_traitsIcEENS1_IcEEEE4TreeNS_4hashIS7_EENS_8equal_toIS7_EENS1_INS_4pairIKS7_S8_EEEEEEEENS_16reverse_iteratorIPSH_EESL_SL_EET2_RT_T0_T1_SM_, symObjAddr: 0x23D0, symBinAddr: 0x10001C900, symSize: 0x190 }
  - { offsetInCU: 0x8538, offset: 0x4AF1D, size: 0x8, addend: 0x0, symName: __ZNSt3__14swapB7v160006IPNS_13unordered_mapINS_12basic_stringIcNS_11char_traitsIcEENS_9allocatorIcEEEE4TreeNS_4hashIS7_EENS_8equal_toIS7_EENS5_INS_4pairIKS7_S8_EEEEEEEEvRT_SK_, symObjAddr: 0x25B0, symBinAddr: 0x10001CAE0, symSize: 0x40 }
  - { offsetInCU: 0x8589, offset: 0x4AF6E, size: 0x8, addend: 0x0, symName: __ZNSt3__125__debug_db_invalidate_allB7v160006INS_6vectorINS_13unordered_mapINS_12basic_stringIcNS_11char_traitsIcEENS_9allocatorIcEEEE4TreeNS_4hashIS8_EENS_8equal_toIS8_EENS6_INS_4pairIKS8_S9_EEEEEENS6_ISI_EEEEEEvPT_, symObjAddr: 0x2690, symBinAddr: 0x10001CBC0, symSize: 0x10 }
  - { offsetInCU: 0x85BA, offset: 0x4AF9F, size: 0x8, addend: 0x0, symName: __ZNSt3__122__make_exception_guardB7v160006INS_29_AllocatorDestroyRangeReverseINS_9allocatorINS_13unordered_mapINS_12basic_stringIcNS_11char_traitsIcEENS2_IcEEEE4TreeNS_4hashIS8_EENS_8equal_toIS8_EENS2_INS_4pairIKS8_S9_EEEEEEEENS_16reverse_iteratorIPSI_EEEEEENS_28__exception_guard_exceptionsIT_EESP_, symObjAddr: 0x26E0, symBinAddr: 0x10001CBD0, symSize: 0x60 }
  - { offsetInCU: 0x85EF, offset: 0x4AFD4, size: 0x8, addend: 0x0, symName: __ZNSt3__1neB7v160006IPNS_13unordered_mapINS_12basic_stringIcNS_11char_traitsIcEENS_9allocatorIcEEEE4TreeNS_4hashIS7_EENS_8equal_toIS7_EENS5_INS_4pairIKS7_S8_EEEEEESI_EEbRKNS_16reverse_iteratorIT_EERKNSJ_IT0_EE, symObjAddr: 0x2780, symBinAddr: 0x10001CC70, symSize: 0x40 }
  - { offsetInCU: 0x863B, offset: 0x4B020, size: 0x8, addend: 0x0, symName: __ZNSt3__112__to_addressB7v160006INS_16reverse_iteratorIPNS_13unordered_mapINS_12basic_stringIcNS_11char_traitsIcEENS_9allocatorIcEEEE4TreeNS_4hashIS8_EENS_8equal_toIS8_EENS6_INS_4pairIKS8_S9_EEEEEEEEvEENS_5decayIDTclsr19__to_address_helperIT_EE6__callclsr3stdE7declvalIRKSM_EEEEE4typeESO_, symObjAddr: 0x27F0, symBinAddr: 0x10001CCE0, symSize: 0x20 }
  - { offsetInCU: 0x868F, offset: 0x4B074, size: 0x8, addend: 0x0, symName: __ZNSt3__116__is_hash_power2B7v160006Em, symObjAddr: 0x36D0, symBinAddr: 0x10001DBC0, symSize: 0x40 }
  - { offsetInCU: 0x86BB, offset: 0x4B0A0, size: 0x8, addend: 0x0, symName: __ZNSt3__116__next_hash_pow2B7v160006Em, symObjAddr: 0x3710, symBinAddr: 0x10001DC00, symSize: 0x60 }
  - { offsetInCU: 0x86E7, offset: 0x4B0CC, size: 0x8, addend: 0x0, symName: __ZNSt3__125__debug_db_invalidate_allB7v160006INS_12__hash_tableINS_17__hash_value_typeINS_12basic_stringIcNS_11char_traitsIcEENS_9allocatorIcEEEE4TreeEENS_22__unordered_map_hasherIS8_SA_NS_4hashIS8_EENS_8equal_toIS8_EELb1EEENS_21__unordered_map_equalIS8_SA_SF_SD_Lb1EEENS6_ISA_EEEEEEvPT_, symObjAddr: 0x3820, symBinAddr: 0x10001DD00, symSize: 0x10 }
  - { offsetInCU: 0x8718, offset: 0x4B0FD, size: 0x8, addend: 0x0, symName: __ZNSt3__116__constrain_hashB7v160006Emm, symObjAddr: 0x3940, symBinAddr: 0x10001DE20, symSize: 0x80 }
  - { offsetInCU: 0x8752, offset: 0x4B137, size: 0x8, addend: 0x0, symName: __ZNSt3__112__libcpp_clzB7v160006Em, symObjAddr: 0x3AD0, symBinAddr: 0x10001DFB0, symSize: 0x20 }
  - { offsetInCU: 0x877E, offset: 0x4B163, size: 0x8, addend: 0x0, symName: __ZNSt3__1neB7v160006ERKNS_25__hash_map_const_iteratorINS_21__hash_const_iteratorIPNS_11__hash_nodeINS_17__hash_value_typeINS_12basic_stringIcNS_11char_traitsIcEENS_9allocatorIcEEEE4TreeEEPvEEEEEESI_, symObjAddr: 0x3B40, symBinAddr: 0x10001E020, symSize: 0x30 }
  - { offsetInCU: 0x87BB, offset: 0x4B1A0, size: 0x8, addend: 0x0, symName: __ZNSt3__1neB7v160006ERKNS_21__hash_const_iteratorIPNS_11__hash_nodeINS_17__hash_value_typeINS_12basic_stringIcNS_11char_traitsIcEENS_9allocatorIcEEEE4TreeEEPvEEEESG_, symObjAddr: 0x3C20, symBinAddr: 0x10001E100, symSize: 0x30 }
  - { offsetInCU: 0x87F8, offset: 0x4B1DD, size: 0x8, addend: 0x0, symName: __ZNSt3__1eqB7v160006ERKNS_21__hash_const_iteratorIPNS_11__hash_nodeINS_17__hash_value_typeINS_12basic_stringIcNS_11char_traitsIcEENS_9allocatorIcEEEE4TreeEEPvEEEESG_, symObjAddr: 0x3C50, symBinAddr: 0x10001E130, symSize: 0x30 }
  - { offsetInCU: 0x8835, offset: 0x4B21A, size: 0x8, addend: 0x0, symName: __ZNSt3__116__do_string_hashB7v160006IPKcEEmT_S3_, symObjAddr: 0x45C0, symBinAddr: 0x10001EAA0, symSize: 0x40 }
  - { offsetInCU: 0x887B, offset: 0x4B260, size: 0x8, addend: 0x0, symName: __ZNSt3__110__loadwordB7v160006ImEET_PKv, symObjAddr: 0x4F30, symBinAddr: 0x10001F390, symSize: 0x20 }
  - { offsetInCU: 0x88BE, offset: 0x4B2A3, size: 0x8, addend: 0x0, symName: __ZNSt3__14swapB7v160006ImEEvRT_S2_, symObjAddr: 0x50F0, symBinAddr: 0x10001F550, symSize: 0x40 }
  - { offsetInCU: 0x890F, offset: 0x4B2F4, size: 0x8, addend: 0x0, symName: __ZNSt3__110__loadwordB7v160006IjEET_PKv, symObjAddr: 0x5180, symBinAddr: 0x10001F5E0, symSize: 0x20 }
  - { offsetInCU: 0x89CD, offset: 0x4B3B2, size: 0x8, addend: 0x0, symName: __ZNSt3__119__allocator_destroyB7v160006INS_9allocatorINS_13unordered_mapINS_12basic_stringIcNS_11char_traitsIcEENS1_IcEEEE4TreeNS_4hashIS7_EENS_8equal_toIS7_EENS1_INS_4pairIKS7_S8_EEEEEEEENS_16reverse_iteratorINSJ_IPSH_EEEESM_EEvRT_T0_T1_, symObjAddr: 0x5FA0, symBinAddr: 0x1000200B0, symSize: 0x70 }
  - { offsetInCU: 0x8A30, offset: 0x4B415, size: 0x8, addend: 0x0, symName: __ZNSt3__1neB7v160006INS_16reverse_iteratorIPNS_13unordered_mapINS_12basic_stringIcNS_11char_traitsIcEENS_9allocatorIcEEEE4TreeNS_4hashIS8_EENS_8equal_toIS8_EENS6_INS_4pairIKS8_S9_EEEEEEEESK_EEbRKNS1_IT_EERKNS1_IT0_EE, symObjAddr: 0x6040, symBinAddr: 0x100020150, symSize: 0x50 }
  - { offsetInCU: 0x8A7C, offset: 0x4B461, size: 0x8, addend: 0x0, symName: __ZNSt3__112__to_addressB7v160006INS_16reverse_iteratorINS1_IPNS_13unordered_mapINS_12basic_stringIcNS_11char_traitsIcEENS_9allocatorIcEEEE4TreeNS_4hashIS8_EENS_8equal_toIS8_EENS6_INS_4pairIKS8_S9_EEEEEEEEEEvEENS_5decayIDTclsr19__to_address_helperIT_EE6__callclsr3stdE7declvalIRKSN_EEEEE4typeESP_, symObjAddr: 0x60C0, symBinAddr: 0x1000201A0, symSize: 0x20 }
  - { offsetInCU: 0x8ADC, offset: 0x4B4C1, size: 0x8, addend: 0x0, symName: __ZNSt3__1neB7v160006ERKNS_15__hash_iteratorIPNS_11__hash_nodeINS_17__hash_value_typeINS_12basic_stringIcNS_11char_traitsIcEENS_9allocatorIcEEEE4TreeEEPvEEEESG_, symObjAddr: 0x68F0, symBinAddr: 0x100020830, symSize: 0x30 }
  - { offsetInCU: 0x8B19, offset: 0x4B4FE, size: 0x8, addend: 0x0, symName: __ZNSt3__1eqB7v160006ERKNS_15__hash_iteratorIPNS_11__hash_nodeINS_17__hash_value_typeINS_12basic_stringIcNS_11char_traitsIcEENS_9allocatorIcEEEE4TreeEEPvEEEESG_, symObjAddr: 0x6920, symBinAddr: 0x100020860, symSize: 0x30 }
  - { offsetInCU: 0x8BDA, offset: 0x4B5BF, size: 0x8, addend: 0x0, symName: __ZNSt3__119__debug_db_insert_iB7v160006INS_11__wrap_iterIPNS_13unordered_mapINS_12basic_stringIcNS_11char_traitsIcEENS_9allocatorIcEEEE4TreeNS_4hashIS8_EENS_8equal_toIS8_EENS6_INS_4pairIKS8_S9_EEEEEEEEEEvPT_, symObjAddr: 0x85F0, symBinAddr: 0x1000215C0, symSize: 0x10 }
  - { offsetInCU: 0x8C0B, offset: 0x4B5F0, size: 0x8, addend: 0x0, symName: __ZNSt3__1neB7v160006IPNS_13unordered_mapINS_12basic_stringIcNS_11char_traitsIcEENS_9allocatorIcEEEE4TreeNS_4hashIS7_EENS_8equal_toIS7_EENS5_INS_4pairIKS7_S8_EEEEEEEEbRKNS_11__wrap_iterIT_EESN_, symObjAddr: 0x8740, symBinAddr: 0x100021710, symSize: 0x30 }
  - { offsetInCU: 0x8C4E, offset: 0x4B633, size: 0x8, addend: 0x0, symName: __ZNSt3__1eqB7v160006IPNS_13unordered_mapINS_12basic_stringIcNS_11char_traitsIcEENS_9allocatorIcEEEE4TreeNS_4hashIS7_EENS_8equal_toIS7_EENS5_INS_4pairIKS7_S8_EEEEEEEEbRKNS_11__wrap_iterIT_EESN_, symObjAddr: 0x8790, symBinAddr: 0x100021760, symSize: 0x40 }
  - { offsetInCU: 0x8C91, offset: 0x4B676, size: 0x8, addend: 0x0, symName: __ZNSt3__1eqB7v160006ERKNS_19__hash_map_iteratorINS_15__hash_iteratorIPNS_11__hash_nodeINS_17__hash_value_typeINS_12basic_stringIcNS_11char_traitsIcEENS_9allocatorIcEEEE4TreeEEPvEEEEEESI_, symObjAddr: 0x8860, symBinAddr: 0x100021830, symSize: 0x30 }
  - { offsetInCU: 0x8CCE, offset: 0x4B6B3, size: 0x8, addend: 0x0, symName: __ZNSt3__120__throw_out_of_rangeB7v160006EPKc, symObjAddr: 0x8890, symBinAddr: 0x100021860, symSize: 0x70 }
  - { offsetInCU: 0x97F1, offset: 0x4C1D6, size: 0x8, addend: 0x0, symName: __ZNSt3__16vectorINS_13unordered_mapINS_12basic_stringIcNS_11char_traitsIcEENS_9allocatorIcEEEE4TreeNS_4hashIS7_EENS_8equal_toIS7_EENS5_INS_4pairIKS7_S8_EEEEEENS5_ISH_EEE26__swap_out_circular_bufferERNS_14__split_bufferISH_RSI_EE, symObjAddr: 0x1AA0, symBinAddr: 0x10001C3E0, symSize: 0x130 }
  - { offsetInCU: 0xB672, offset: 0x4E057, size: 0x8, addend: 0x0, symName: __ZN11SymbolTable10enterScopeEv, symObjAddr: 0x0, symBinAddr: 0x10001B1B0, symSize: 0x20 }
  - { offsetInCU: 0xB697, offset: 0x4E07C, size: 0x8, addend: 0x0, symName: __ZNSt3__16vectorINS_13unordered_mapINS_12basic_stringIcNS_11char_traitsIcEENS_9allocatorIcEEEE4TreeNS_4hashIS7_EENS_8equal_toIS7_EENS5_INS_4pairIKS7_S8_EEEEEENS5_ISH_EEE12emplace_backIJEEEvDpOT_, symObjAddr: 0x20, symBinAddr: 0x10001B1D0, symSize: 0x50 }
  - { offsetInCU: 0xB6C4, offset: 0x4E0A9, size: 0x8, addend: 0x0, symName: __ZN11SymbolTable9exitScopeEv, symObjAddr: 0x70, symBinAddr: 0x10001B220, symSize: 0x30 }
  - { offsetInCU: 0xB6EA, offset: 0x4E0CF, size: 0x8, addend: 0x0, symName: __ZNKSt3__16vectorINS_13unordered_mapINS_12basic_stringIcNS_11char_traitsIcEENS_9allocatorIcEEEE4TreeNS_4hashIS7_EENS_8equal_toIS7_EENS5_INS_4pairIKS7_S8_EEEEEENS5_ISH_EEE5emptyB7v160006Ev, symObjAddr: 0xA0, symBinAddr: 0x10001B250, symSize: 0x20 }
  - { offsetInCU: 0xB70D, offset: 0x4E0F2, size: 0x8, addend: 0x0, symName: __ZNSt3__16vectorINS_13unordered_mapINS_12basic_stringIcNS_11char_traitsIcEENS_9allocatorIcEEEE4TreeNS_4hashIS7_EENS_8equal_toIS7_EENS5_INS_4pairIKS7_S8_EEEEEENS5_ISH_EEE8pop_backEv, symObjAddr: 0xC0, symBinAddr: 0x10001B270, symSize: 0x30 }
  - { offsetInCU: 0xB735, offset: 0x4E11A, size: 0x8, addend: 0x0, symName: __ZN11SymbolTable7declareERKNSt3__112basic_stringIcNS0_11char_traitsIcEENS0_9allocatorIcEEEER4Tree, symObjAddr: 0xF0, symBinAddr: 0x10001B2A0, symSize: 0x190 }
  - { offsetInCU: 0xB777, offset: 0x4E15C, size: 0x8, addend: 0x0, symName: __ZNSt3__16vectorINS_13unordered_mapINS_12basic_stringIcNS_11char_traitsIcEENS_9allocatorIcEEEE4TreeNS_4hashIS7_EENS_8equal_toIS7_EENS5_INS_4pairIKS7_S8_EEEEEENS5_ISH_EEE4backB7v160006Ev, symObjAddr: 0x2B0, symBinAddr: 0x10001B460, symSize: 0x20 }
  - { offsetInCU: 0xB79B, offset: 0x4E180, size: 0x8, addend: 0x0, symName: __ZNSt3__113unordered_mapINS_12basic_stringIcNS_11char_traitsIcEENS_9allocatorIcEEEE4TreeNS_4hashIS6_EENS_8equal_toIS6_EENS4_INS_4pairIKS6_S7_EEEEE4findB7v160006ERSD_, symObjAddr: 0x2D0, symBinAddr: 0x10001B480, symSize: 0x40 }
  - { offsetInCU: 0xB7CE, offset: 0x4E1B3, size: 0x8, addend: 0x0, symName: __ZNSt3__113unordered_mapINS_12basic_stringIcNS_11char_traitsIcEENS_9allocatorIcEEEE4TreeNS_4hashIS6_EENS_8equal_toIS6_EENS4_INS_4pairIKS6_S7_EEEEE3endB7v160006Ev, symObjAddr: 0x310, symBinAddr: 0x10001B4C0, symSize: 0x30 }
  - { offsetInCU: 0xB7F1, offset: 0x4E1D6, size: 0x8, addend: 0x0, symName: __ZNSt3__113unordered_mapINS_12basic_stringIcNS_11char_traitsIcEENS_9allocatorIcEEEE4TreeNS_4hashIS6_EENS_8equal_toIS6_EENS4_INS_4pairIKS6_S7_EEEEEixERSD_, symObjAddr: 0x450, symBinAddr: 0x10001B4F0, symSize: 0x140 }
  - { offsetInCU: 0xB856, offset: 0x4E23B, size: 0x8, addend: 0x0, symName: __ZN11SymbolTable6lookupERKNSt3__112basic_stringIcNS0_11char_traitsIcEENS0_9allocatorIcEEEE, symObjAddr: 0x590, symBinAddr: 0x10001B630, symSize: 0x250 }
  - { offsetInCU: 0xB898, offset: 0x4E27D, size: 0x8, addend: 0x0, symName: __ZNSt3__116reverse_iteratorINS_11__wrap_iterIPNS_13unordered_mapINS_12basic_stringIcNS_11char_traitsIcEENS_9allocatorIcEEEE4TreeNS_4hashIS8_EENS_8equal_toIS8_EENS6_INS_4pairIKS8_S9_EEEEEEEEEC1B7v160006Ev, symObjAddr: 0x7E0, symBinAddr: 0x10001B880, symSize: 0x20 }
  - { offsetInCU: 0xB8C0, offset: 0x4E2A5, size: 0x8, addend: 0x0, symName: __ZNSt3__16vectorINS_13unordered_mapINS_12basic_stringIcNS_11char_traitsIcEENS_9allocatorIcEEEE4TreeNS_4hashIS7_EENS_8equal_toIS7_EENS5_INS_4pairIKS7_S8_EEEEEENS5_ISH_EEE6rbeginB7v160006Ev, symObjAddr: 0x800, symBinAddr: 0x10001B8A0, symSize: 0x50 }
  - { offsetInCU: 0xB8E4, offset: 0x4E2C9, size: 0x8, addend: 0x0, symName: __ZNSt3__16vectorINS_13unordered_mapINS_12basic_stringIcNS_11char_traitsIcEENS_9allocatorIcEEEE4TreeNS_4hashIS7_EENS_8equal_toIS7_EENS5_INS_4pairIKS7_S8_EEEEEENS5_ISH_EEE4rendB7v160006Ev, symObjAddr: 0x8A0, symBinAddr: 0x10001B940, symSize: 0x50 }
  - { offsetInCU: 0xB908, offset: 0x4E2ED, size: 0x8, addend: 0x0, symName: __ZNKSt3__116reverse_iteratorINS_11__wrap_iterIPNS_13unordered_mapINS_12basic_stringIcNS_11char_traitsIcEENS_9allocatorIcEEEE4TreeNS_4hashIS8_EENS_8equal_toIS8_EENS6_INS_4pairIKS8_S9_EEEEEEEEEptB7v160006Ev, symObjAddr: 0x8F0, symBinAddr: 0x10001B990, symSize: 0x20 }
  - { offsetInCU: 0xB92B, offset: 0x4E310, size: 0x8, addend: 0x0, symName: __ZNSt3__113unordered_mapINS_12basic_stringIcNS_11char_traitsIcEENS_9allocatorIcEEEE4TreeNS_4hashIS6_EENS_8equal_toIS6_EENS4_INS_4pairIKS6_S7_EEEEE2atERSD_, symObjAddr: 0x910, symBinAddr: 0x10001B9B0, symSize: 0x70 }
  - { offsetInCU: 0xB971, offset: 0x4E356, size: 0x8, addend: 0x0, symName: __ZNSt3__116reverse_iteratorINS_11__wrap_iterIPNS_13unordered_mapINS_12basic_stringIcNS_11char_traitsIcEENS_9allocatorIcEEEE4TreeNS_4hashIS8_EENS_8equal_toIS8_EENS6_INS_4pairIKS8_S9_EEEEEEEEEppB7v160006Ev, symObjAddr: 0x980, symBinAddr: 0x10001BA20, symSize: 0x30 }
  - { offsetInCU: 0xB995, offset: 0x4E37A, size: 0x8, addend: 0x0, symName: __ZNSt3__16vectorINS_13unordered_mapINS_12basic_stringIcNS_11char_traitsIcEENS_9allocatorIcEEEE4TreeNS_4hashIS7_EENS_8equal_toIS7_EENS5_INS_4pairIKS7_S8_EEEEEENS5_ISH_EEE9__end_capB7v160006Ev, symObjAddr: 0x9B0, symBinAddr: 0x10001BA50, symSize: 0x20 }
  - { offsetInCU: 0xB9B9, offset: 0x4E39E, size: 0x8, addend: 0x0, symName: __ZNSt3__16vectorINS_13unordered_mapINS_12basic_stringIcNS_11char_traitsIcEENS_9allocatorIcEEEE4TreeNS_4hashIS7_EENS_8equal_toIS7_EENS5_INS_4pairIKS7_S8_EEEEEENS5_ISH_EEE22__construct_one_at_endB7v160006IJEEEvDpOT_, symObjAddr: 0x9D0, symBinAddr: 0x10001BA70, symSize: 0xA0 }
  - { offsetInCU: 0xB9F0, offset: 0x4E3D5, size: 0x8, addend: 0x0, symName: __ZNSt3__16vectorINS_13unordered_mapINS_12basic_stringIcNS_11char_traitsIcEENS_9allocatorIcEEEE4TreeNS_4hashIS7_EENS_8equal_toIS7_EENS5_INS_4pairIKS7_S8_EEEEEENS5_ISH_EEE24__emplace_back_slow_pathIJEEEvDpOT_, symObjAddr: 0xA70, symBinAddr: 0x10001BB10, symSize: 0xE0 }
  - { offsetInCU: 0xBA3B, offset: 0x4E420, size: 0x8, addend: 0x0, symName: __ZNSt3__117__compressed_pairIPNS_13unordered_mapINS_12basic_stringIcNS_11char_traitsIcEENS_9allocatorIcEEEE4TreeNS_4hashIS7_EENS_8equal_toIS7_EENS5_INS_4pairIKS7_S8_EEEEEENS5_ISH_EEE5firstB7v160006Ev, symObjAddr: 0xB50, symBinAddr: 0x10001BBF0, symSize: 0x20 }
  - { offsetInCU: 0xBA5F, offset: 0x4E444, size: 0x8, addend: 0x0, symName: __ZNSt3__122__compressed_pair_elemIPNS_13unordered_mapINS_12basic_stringIcNS_11char_traitsIcEENS_9allocatorIcEEEE4TreeNS_4hashIS7_EENS_8equal_toIS7_EENS5_INS_4pairIKS7_S8_EEEEEELi0ELb0EE5__getB7v160006Ev, symObjAddr: 0xB70, symBinAddr: 0x10001BC10, symSize: 0x10 }
  - { offsetInCU: 0xBA9C, offset: 0x4E481, size: 0x8, addend: 0x0, symName: __ZNSt3__16vectorINS_13unordered_mapINS_12basic_stringIcNS_11char_traitsIcEENS_9allocatorIcEEEE4TreeNS_4hashIS7_EENS_8equal_toIS7_EENS5_INS_4pairIKS7_S8_EEEEEENS5_ISH_EEE21_ConstructTransactionC1B7v160006ERSJ_m, symObjAddr: 0xB80, symBinAddr: 0x10001BC20, symSize: 0x30 }
  - { offsetInCU: 0xBAE2, offset: 0x4E4C7, size: 0x8, addend: 0x0, symName: __ZNSt3__116allocator_traitsINS_9allocatorINS_13unordered_mapINS_12basic_stringIcNS_11char_traitsIcEENS1_IcEEEE4TreeNS_4hashIS7_EENS_8equal_toIS7_EENS1_INS_4pairIKS7_S8_EEEEEEEEE9constructB7v160006ISH_JEvEEvRSI_PT_DpOT0_, symObjAddr: 0xBB0, symBinAddr: 0x10001BC50, symSize: 0x30 }
  - { offsetInCU: 0xBB23, offset: 0x4E508, size: 0x8, addend: 0x0, symName: __ZNSt3__16vectorINS_13unordered_mapINS_12basic_stringIcNS_11char_traitsIcEENS_9allocatorIcEEEE4TreeNS_4hashIS7_EENS_8equal_toIS7_EENS5_INS_4pairIKS7_S8_EEEEEENS5_ISH_EEE21_ConstructTransactionD1B7v160006Ev, symObjAddr: 0xC10, symBinAddr: 0x10001BC80, symSize: 0x20 }
  - { offsetInCU: 0xBB4B, offset: 0x4E530, size: 0x8, addend: 0x0, symName: __ZNSt3__16vectorINS_13unordered_mapINS_12basic_stringIcNS_11char_traitsIcEENS_9allocatorIcEEEE4TreeNS_4hashIS7_EENS_8equal_toIS7_EENS5_INS_4pairIKS7_S8_EEEEEENS5_ISH_EEE21_ConstructTransactionC2B7v160006ERSJ_m, symObjAddr: 0xC30, symBinAddr: 0x10001BCA0, symSize: 0x40 }
  - { offsetInCU: 0xBB91, offset: 0x4E576, size: 0x8, addend: 0x0, symName: __ZNSt3__19allocatorINS_13unordered_mapINS_12basic_stringIcNS_11char_traitsIcEENS0_IcEEEE4TreeNS_4hashIS6_EENS_8equal_toIS6_EENS0_INS_4pairIKS6_S7_EEEEEEE9constructB7v160006ISG_JEEEvPT_DpOT0_, symObjAddr: 0xC70, symBinAddr: 0x10001BCE0, symSize: 0x20 }
  - { offsetInCU: 0xBBD1, offset: 0x4E5B6, size: 0x8, addend: 0x0, symName: __ZNSt3__113unordered_mapINS_12basic_stringIcNS_11char_traitsIcEENS_9allocatorIcEEEE4TreeNS_4hashIS6_EENS_8equal_toIS6_EENS4_INS_4pairIKS6_S7_EEEEEC1B7v160006Ev, symObjAddr: 0xC90, symBinAddr: 0x10001BD00, symSize: 0x20 }
  - { offsetInCU: 0xBBF9, offset: 0x4E5DE, size: 0x8, addend: 0x0, symName: __ZNSt3__113unordered_mapINS_12basic_stringIcNS_11char_traitsIcEENS_9allocatorIcEEEE4TreeNS_4hashIS6_EENS_8equal_toIS6_EENS4_INS_4pairIKS6_S7_EEEEEC2B7v160006Ev, symObjAddr: 0xCB0, symBinAddr: 0x10001BD20, symSize: 0x60 }
  - { offsetInCU: 0xBC21, offset: 0x4E606, size: 0x8, addend: 0x0, symName: __ZNSt3__112__hash_tableINS_17__hash_value_typeINS_12basic_stringIcNS_11char_traitsIcEENS_9allocatorIcEEEE4TreeEENS_22__unordered_map_hasherIS7_S9_NS_4hashIS7_EENS_8equal_toIS7_EELb1EEENS_21__unordered_map_equalIS7_S9_SE_SC_Lb1EEENS5_IS9_EEEC1Ev, symObjAddr: 0xD10, symBinAddr: 0x10001BD80, symSize: 0x20 }
  - { offsetInCU: 0xBC4C, offset: 0x4E631, size: 0x8, addend: 0x0, symName: __ZNSt3__112__hash_tableINS_17__hash_value_typeINS_12basic_stringIcNS_11char_traitsIcEENS_9allocatorIcEEEE4TreeEENS_22__unordered_map_hasherIS7_S9_NS_4hashIS7_EENS_8equal_toIS7_EELb1EEENS_21__unordered_map_equalIS7_S9_SE_SC_Lb1EEENS5_IS9_EEEC2Ev, symObjAddr: 0xD60, symBinAddr: 0x10001BDB0, symSize: 0xB0 }
  - { offsetInCU: 0xBC77, offset: 0x4E65C, size: 0x8, addend: 0x0, symName: __ZNSt3__110unique_ptrIA_PNS_16__hash_node_baseIPNS_11__hash_nodeINS_17__hash_value_typeINS_12basic_stringIcNS_11char_traitsIcEENS_9allocatorIcEEEE4TreeEEPvEEEENS_25__bucket_list_deallocatorINS7_ISG_EEEEEC1B7v160006ILb1EvEEv, symObjAddr: 0xE10, symBinAddr: 0x10001BE60, symSize: 0x20 }
  - { offsetInCU: 0xBCAA, offset: 0x4E68F, size: 0x8, addend: 0x0, symName: __ZNSt3__117__compressed_pairINS_16__hash_node_baseIPNS_11__hash_nodeINS_17__hash_value_typeINS_12basic_stringIcNS_11char_traitsIcEENS_9allocatorIcEEEE4TreeEEPvEEEENS7_ISD_EEEC1B7v160006ILb1EvEEv, symObjAddr: 0xE30, symBinAddr: 0x10001BE80, symSize: 0x20 }
  - { offsetInCU: 0xBCE7, offset: 0x4E6CC, size: 0x8, addend: 0x0, symName: __ZNSt3__117__compressed_pairImNS_22__unordered_map_hasherINS_12basic_stringIcNS_11char_traitsIcEENS_9allocatorIcEEEENS_17__hash_value_typeIS7_4TreeEENS_4hashIS7_EENS_8equal_toIS7_EELb1EEEEC1B7v160006IiNS_18__default_init_tagEEEOT_OT0_, symObjAddr: 0xE50, symBinAddr: 0x10001BEA0, symSize: 0x30 }
  - { offsetInCU: 0xBD42, offset: 0x4E727, size: 0x8, addend: 0x0, symName: __ZNSt3__117__compressed_pairIfNS_21__unordered_map_equalINS_12basic_stringIcNS_11char_traitsIcEENS_9allocatorIcEEEENS_17__hash_value_typeIS7_4TreeEENS_8equal_toIS7_EENS_4hashIS7_EELb1EEEEC1B7v160006IfNS_18__default_init_tagEEEOT_OT0_, symObjAddr: 0xE80, symBinAddr: 0x10001BED0, symSize: 0x30 }
  - { offsetInCU: 0xBD98, offset: 0x4E77D, size: 0x8, addend: 0x0, symName: __ZNSt3__110unique_ptrIA_PNS_16__hash_node_baseIPNS_11__hash_nodeINS_17__hash_value_typeINS_12basic_stringIcNS_11char_traitsIcEENS_9allocatorIcEEEE4TreeEEPvEEEENS_25__bucket_list_deallocatorINS7_ISG_EEEEEC2B7v160006ILb1EvEEv, symObjAddr: 0xED0, symBinAddr: 0x10001BF00, symSize: 0x40 }
  - { offsetInCU: 0xBDD0, offset: 0x4E7B5, size: 0x8, addend: 0x0, symName: __ZNSt3__117__compressed_pairIPPNS_16__hash_node_baseIPNS_11__hash_nodeINS_17__hash_value_typeINS_12basic_stringIcNS_11char_traitsIcEENS_9allocatorIcEEEE4TreeEEPvEEEENS_25__bucket_list_deallocatorINS7_ISG_EEEEEC1B7v160006INS_16__value_init_tagESN_EEOT_OT0_, symObjAddr: 0xF10, symBinAddr: 0x10001BF40, symSize: 0x30 }
  - { offsetInCU: 0xBE26, offset: 0x4E80B, size: 0x8, addend: 0x0, symName: __ZNSt3__117__compressed_pairIPPNS_16__hash_node_baseIPNS_11__hash_nodeINS_17__hash_value_typeINS_12basic_stringIcNS_11char_traitsIcEENS_9allocatorIcEEEE4TreeEEPvEEEENS_25__bucket_list_deallocatorINS7_ISG_EEEEEC2B7v160006INS_16__value_init_tagESN_EEOT_OT0_, symObjAddr: 0xF40, symBinAddr: 0x10001BF70, symSize: 0x40 }
  - { offsetInCU: 0xBE7C, offset: 0x4E861, size: 0x8, addend: 0x0, symName: __ZNSt3__122__compressed_pair_elemIPPNS_16__hash_node_baseIPNS_11__hash_nodeINS_17__hash_value_typeINS_12basic_stringIcNS_11char_traitsIcEENS_9allocatorIcEEEE4TreeEEPvEEEELi0ELb0EEC2B7v160006ENS_16__value_init_tagE, symObjAddr: 0xF80, symBinAddr: 0x10001BFB0, symSize: 0x20 }
  - { offsetInCU: 0xBEAF, offset: 0x4E894, size: 0x8, addend: 0x0, symName: __ZNSt3__122__compressed_pair_elemINS_25__bucket_list_deallocatorINS_9allocatorIPNS_16__hash_node_baseIPNS_11__hash_nodeINS_17__hash_value_typeINS_12basic_stringIcNS_11char_traitsIcEENS2_IcEEEE4TreeEEPvEEEEEEEELi1ELb0EEC2B7v160006ENS_16__value_init_tagE, symObjAddr: 0xFA0, symBinAddr: 0x10001BFD0, symSize: 0x20 }
  - { offsetInCU: 0xBEE2, offset: 0x4E8C7, size: 0x8, addend: 0x0, symName: __ZNSt3__125__bucket_list_deallocatorINS_9allocatorIPNS_16__hash_node_baseIPNS_11__hash_nodeINS_17__hash_value_typeINS_12basic_stringIcNS_11char_traitsIcEENS1_IcEEEE4TreeEEPvEEEEEEEC1B7v160006Ev, symObjAddr: 0xFC0, symBinAddr: 0x10001BFF0, symSize: 0x20 }
  - { offsetInCU: 0xBF0A, offset: 0x4E8EF, size: 0x8, addend: 0x0, symName: __ZNSt3__125__bucket_list_deallocatorINS_9allocatorIPNS_16__hash_node_baseIPNS_11__hash_nodeINS_17__hash_value_typeINS_12basic_stringIcNS_11char_traitsIcEENS1_IcEEEE4TreeEEPvEEEEEEEC2B7v160006Ev, symObjAddr: 0xFE0, symBinAddr: 0x10001C010, symSize: 0x30 }
  - { offsetInCU: 0xBF32, offset: 0x4E917, size: 0x8, addend: 0x0, symName: __ZNSt3__117__compressed_pairImNS_9allocatorIPNS_16__hash_node_baseIPNS_11__hash_nodeINS_17__hash_value_typeINS_12basic_stringIcNS_11char_traitsIcEENS1_IcEEEE4TreeEEPvEEEEEEEC1B7v160006IiNS_18__default_init_tagEEEOT_OT0_, symObjAddr: 0x1010, symBinAddr: 0x10001C040, symSize: 0x30 }
  - { offsetInCU: 0xBF88, offset: 0x4E96D, size: 0x8, addend: 0x0, symName: __ZNSt3__117__compressed_pairImNS_9allocatorIPNS_16__hash_node_baseIPNS_11__hash_nodeINS_17__hash_value_typeINS_12basic_stringIcNS_11char_traitsIcEENS1_IcEEEE4TreeEEPvEEEEEEEC2B7v160006IiNS_18__default_init_tagEEEOT_OT0_, symObjAddr: 0x1040, symBinAddr: 0x10001C070, symSize: 0x40 }
  - { offsetInCU: 0xBFDE, offset: 0x4E9C3, size: 0x8, addend: 0x0, symName: __ZNSt3__122__compressed_pair_elemINS_9allocatorIPNS_16__hash_node_baseIPNS_11__hash_nodeINS_17__hash_value_typeINS_12basic_stringIcNS_11char_traitsIcEENS1_IcEEEE4TreeEEPvEEEEEELi1ELb1EEC2B7v160006ENS_18__default_init_tagE, symObjAddr: 0x10A0, symBinAddr: 0x10001C0B0, symSize: 0x20 }
  - { offsetInCU: 0xC011, offset: 0x4E9F6, size: 0x8, addend: 0x0, symName: __ZNSt3__19allocatorIPNS_16__hash_node_baseIPNS_11__hash_nodeINS_17__hash_value_typeINS_12basic_stringIcNS_11char_traitsIcEENS0_IcEEEE4TreeEEPvEEEEEC2B7v160006Ev, symObjAddr: 0x10C0, symBinAddr: 0x10001C0D0, symSize: 0x20 }
  - { offsetInCU: 0xC039, offset: 0x4EA1E, size: 0x8, addend: 0x0, symName: __ZNSt3__116__non_trivial_ifILb1ENS_9allocatorIPNS_16__hash_node_baseIPNS_11__hash_nodeINS_17__hash_value_typeINS_12basic_stringIcNS_11char_traitsIcEENS1_IcEEEE4TreeEEPvEEEEEEEC2B7v160006Ev, symObjAddr: 0x10E0, symBinAddr: 0x10001C0F0, symSize: 0x10 }
  - { offsetInCU: 0xC061, offset: 0x4EA46, size: 0x8, addend: 0x0, symName: __ZNSt3__117__compressed_pairINS_16__hash_node_baseIPNS_11__hash_nodeINS_17__hash_value_typeINS_12basic_stringIcNS_11char_traitsIcEENS_9allocatorIcEEEE4TreeEEPvEEEENS7_ISD_EEEC2B7v160006ILb1EvEEv, symObjAddr: 0x10F0, symBinAddr: 0x10001C100, symSize: 0x30 }
  - { offsetInCU: 0xC094, offset: 0x4EA79, size: 0x8, addend: 0x0, symName: __ZNSt3__122__compressed_pair_elemINS_16__hash_node_baseIPNS_11__hash_nodeINS_17__hash_value_typeINS_12basic_stringIcNS_11char_traitsIcEENS_9allocatorIcEEEE4TreeEEPvEEEELi0ELb0EEC2B7v160006ENS_16__value_init_tagE, symObjAddr: 0x1120, symBinAddr: 0x10001C130, symSize: 0x20 }
  - { offsetInCU: 0xC0C7, offset: 0x4EAAC, size: 0x8, addend: 0x0, symName: __ZNSt3__122__compressed_pair_elemINS_9allocatorINS_11__hash_nodeINS_17__hash_value_typeINS_12basic_stringIcNS_11char_traitsIcEENS1_IcEEEE4TreeEEPvEEEELi1ELb1EEC2B7v160006ENS_16__value_init_tagE, symObjAddr: 0x1140, symBinAddr: 0x10001C150, symSize: 0x20 }
  - { offsetInCU: 0xC0FA, offset: 0x4EADF, size: 0x8, addend: 0x0, symName: __ZNSt3__116__hash_node_baseIPNS_11__hash_nodeINS_17__hash_value_typeINS_12basic_stringIcNS_11char_traitsIcEENS_9allocatorIcEEEE4TreeEEPvEEEC1B7v160006Ev, symObjAddr: 0x1160, symBinAddr: 0x10001C170, symSize: 0x20 }
  - { offsetInCU: 0xC122, offset: 0x4EB07, size: 0x8, addend: 0x0, symName: __ZNSt3__116__hash_node_baseIPNS_11__hash_nodeINS_17__hash_value_typeINS_12basic_stringIcNS_11char_traitsIcEENS_9allocatorIcEEEE4TreeEEPvEEEC2B7v160006Ev, symObjAddr: 0x1180, symBinAddr: 0x10001C190, symSize: 0x20 }
  - { offsetInCU: 0xC14A, offset: 0x4EB2F, size: 0x8, addend: 0x0, symName: __ZNSt3__19allocatorINS_11__hash_nodeINS_17__hash_value_typeINS_12basic_stringIcNS_11char_traitsIcEENS0_IcEEEE4TreeEEPvEEEC2B7v160006Ev, symObjAddr: 0x11A0, symBinAddr: 0x10001C1B0, symSize: 0x20 }
  - { offsetInCU: 0xC172, offset: 0x4EB57, size: 0x8, addend: 0x0, symName: __ZNSt3__116__non_trivial_ifILb1ENS_9allocatorINS_11__hash_nodeINS_17__hash_value_typeINS_12basic_stringIcNS_11char_traitsIcEENS1_IcEEEE4TreeEEPvEEEEEC2B7v160006Ev, symObjAddr: 0x11C0, symBinAddr: 0x10001C1D0, symSize: 0x10 }
  - { offsetInCU: 0xC19A, offset: 0x4EB7F, size: 0x8, addend: 0x0, symName: __ZNSt3__117__compressed_pairImNS_22__unordered_map_hasherINS_12basic_stringIcNS_11char_traitsIcEENS_9allocatorIcEEEENS_17__hash_value_typeIS7_4TreeEENS_4hashIS7_EENS_8equal_toIS7_EELb1EEEEC2B7v160006IiNS_18__default_init_tagEEEOT_OT0_, symObjAddr: 0x11D0, symBinAddr: 0x10001C1E0, symSize: 0x40 }
  - { offsetInCU: 0xC1F0, offset: 0x4EBD5, size: 0x8, addend: 0x0, symName: __ZNSt3__122__compressed_pair_elemINS_22__unordered_map_hasherINS_12basic_stringIcNS_11char_traitsIcEENS_9allocatorIcEEEENS_17__hash_value_typeIS7_4TreeEENS_4hashIS7_EENS_8equal_toIS7_EELb1EEELi1ELb1EEC2B7v160006ENS_18__default_init_tagE, symObjAddr: 0x1210, symBinAddr: 0x10001C220, symSize: 0x20 }
  - { offsetInCU: 0xC223, offset: 0x4EC08, size: 0x8, addend: 0x0, symName: __ZNSt3__122__unordered_map_hasherINS_12basic_stringIcNS_11char_traitsIcEENS_9allocatorIcEEEENS_17__hash_value_typeIS6_4TreeEENS_4hashIS6_EENS_8equal_toIS6_EELb1EEC2B7v160006Ev, symObjAddr: 0x1230, symBinAddr: 0x10001C240, symSize: 0x10 }
  - { offsetInCU: 0xC24B, offset: 0x4EC30, size: 0x8, addend: 0x0, symName: __ZNSt3__117__compressed_pairIfNS_21__unordered_map_equalINS_12basic_stringIcNS_11char_traitsIcEENS_9allocatorIcEEEENS_17__hash_value_typeIS7_4TreeEENS_8equal_toIS7_EENS_4hashIS7_EELb1EEEEC2B7v160006IfNS_18__default_init_tagEEEOT_OT0_, symObjAddr: 0x1240, symBinAddr: 0x10001C250, symSize: 0x40 }
  - { offsetInCU: 0xC2A1, offset: 0x4EC86, size: 0x8, addend: 0x0, symName: __ZNSt3__122__compressed_pair_elemIfLi0ELb0EEC2B7v160006IfvEEOT_, symObjAddr: 0x1280, symBinAddr: 0x10001C290, symSize: 0x20 }
  - { offsetInCU: 0xC2E1, offset: 0x4ECC6, size: 0x8, addend: 0x0, symName: __ZNSt3__122__compressed_pair_elemINS_21__unordered_map_equalINS_12basic_stringIcNS_11char_traitsIcEENS_9allocatorIcEEEENS_17__hash_value_typeIS7_4TreeEENS_8equal_toIS7_EENS_4hashIS7_EELb1EEELi1ELb1EEC2B7v160006ENS_18__default_init_tagE, symObjAddr: 0x12A0, symBinAddr: 0x10001C2B0, symSize: 0x20 }
  - { offsetInCU: 0xC314, offset: 0x4ECF9, size: 0x8, addend: 0x0, symName: __ZNSt3__121__unordered_map_equalINS_12basic_stringIcNS_11char_traitsIcEENS_9allocatorIcEEEENS_17__hash_value_typeIS6_4TreeEENS_8equal_toIS6_EENS_4hashIS6_EELb1EEC2B7v160006Ev, symObjAddr: 0x12C0, symBinAddr: 0x10001C2D0, symSize: 0x10 }
  - { offsetInCU: 0xC33C, offset: 0x4ED21, size: 0x8, addend: 0x0, symName: __ZNSt3__16vectorINS_13unordered_mapINS_12basic_stringIcNS_11char_traitsIcEENS_9allocatorIcEEEE4TreeNS_4hashIS7_EENS_8equal_toIS7_EENS5_INS_4pairIKS7_S8_EEEEEENS5_ISH_EEE21_ConstructTransactionD2B7v160006Ev, symObjAddr: 0x1970, symBinAddr: 0x10001C2E0, symSize: 0x20 }
  - { offsetInCU: 0xC363, offset: 0x4ED48, size: 0x8, addend: 0x0, symName: __ZNKSt3__16vectorINS_13unordered_mapINS_12basic_stringIcNS_11char_traitsIcEENS_9allocatorIcEEEE4TreeNS_4hashIS7_EENS_8equal_toIS7_EENS5_INS_4pairIKS7_S8_EEEEEENS5_ISH_EEE11__recommendB7v160006Em, symObjAddr: 0x1990, symBinAddr: 0x10001C300, symSize: 0xA0 }
  - { offsetInCU: 0xC3B8, offset: 0x4ED9D, size: 0x8, addend: 0x0, symName: __ZNSt3__114__split_bufferINS_13unordered_mapINS_12basic_stringIcNS_11char_traitsIcEENS_9allocatorIcEEEE4TreeNS_4hashIS7_EENS_8equal_toIS7_EENS5_INS_4pairIKS7_S8_EEEEEERNS5_ISH_EEEC1EmmSJ_, symObjAddr: 0x1A60, symBinAddr: 0x10001C3A0, symSize: 0x40 }
  - { offsetInCU: 0xC40D, offset: 0x4EDF2, size: 0x8, addend: 0x0, symName: __ZNSt3__114__split_bufferINS_13unordered_mapINS_12basic_stringIcNS_11char_traitsIcEENS_9allocatorIcEEEE4TreeNS_4hashIS7_EENS_8equal_toIS7_EENS5_INS_4pairIKS7_S8_EEEEEERNS5_ISH_EEED1Ev, symObjAddr: 0x1BD0, symBinAddr: 0x10001C510, symSize: 0x20 }
  - { offsetInCU: 0xC437, offset: 0x4EE1C, size: 0x8, addend: 0x0, symName: __ZNKSt3__16vectorINS_13unordered_mapINS_12basic_stringIcNS_11char_traitsIcEENS_9allocatorIcEEEE4TreeNS_4hashIS7_EENS_8equal_toIS7_EENS5_INS_4pairIKS7_S8_EEEEEENS5_ISH_EEE8max_sizeEv, symObjAddr: 0x1BF0, symBinAddr: 0x10001C530, symSize: 0x70 }
  - { offsetInCU: 0xC45F, offset: 0x4EE44, size: 0x8, addend: 0x0, symName: __ZNKSt3__16vectorINS_13unordered_mapINS_12basic_stringIcNS_11char_traitsIcEENS_9allocatorIcEEEE4TreeNS_4hashIS7_EENS_8equal_toIS7_EENS5_INS_4pairIKS7_S8_EEEEEENS5_ISH_EEE20__throw_length_errorB7v160006Ev, symObjAddr: 0x1C60, symBinAddr: 0x10001C5A0, symSize: 0x20 }
  - { offsetInCU: 0xC48D, offset: 0x4EE72, size: 0x8, addend: 0x0, symName: __ZNSt3__116allocator_traitsINS_9allocatorINS_13unordered_mapINS_12basic_stringIcNS_11char_traitsIcEENS1_IcEEEE4TreeNS_4hashIS7_EENS_8equal_toIS7_EENS1_INS_4pairIKS7_S8_EEEEEEEEE8max_sizeB7v160006ISI_vEEmRKSI_, symObjAddr: 0x1D20, symBinAddr: 0x10001C5C0, symSize: 0x20 }
  - { offsetInCU: 0xC4BA, offset: 0x4EE9F, size: 0x8, addend: 0x0, symName: __ZNKSt3__16vectorINS_13unordered_mapINS_12basic_stringIcNS_11char_traitsIcEENS_9allocatorIcEEEE4TreeNS_4hashIS7_EENS_8equal_toIS7_EENS5_INS_4pairIKS7_S8_EEEEEENS5_ISH_EEE7__allocB7v160006Ev, symObjAddr: 0x1D40, symBinAddr: 0x10001C5E0, symSize: 0x20 }
  - { offsetInCU: 0xC4DE, offset: 0x4EEC3, size: 0x8, addend: 0x0, symName: __ZNKSt3__19allocatorINS_13unordered_mapINS_12basic_stringIcNS_11char_traitsIcEENS0_IcEEEE4TreeNS_4hashIS6_EENS_8equal_toIS6_EENS0_INS_4pairIKS6_S7_EEEEEEE8max_sizeB7v160006Ev, symObjAddr: 0x1DF0, symBinAddr: 0x10001C600, symSize: 0x20 }
  - { offsetInCU: 0xC502, offset: 0x4EEE7, size: 0x8, addend: 0x0, symName: __ZNKSt3__117__compressed_pairIPNS_13unordered_mapINS_12basic_stringIcNS_11char_traitsIcEENS_9allocatorIcEEEE4TreeNS_4hashIS7_EENS_8equal_toIS7_EENS5_INS_4pairIKS7_S8_EEEEEENS5_ISH_EEE6secondB7v160006Ev, symObjAddr: 0x1E10, symBinAddr: 0x10001C620, symSize: 0x20 }
  - { offsetInCU: 0xC526, offset: 0x4EF0B, size: 0x8, addend: 0x0, symName: __ZNKSt3__122__compressed_pair_elemINS_9allocatorINS_13unordered_mapINS_12basic_stringIcNS_11char_traitsIcEENS1_IcEEEE4TreeNS_4hashIS7_EENS_8equal_toIS7_EENS1_INS_4pairIKS7_S8_EEEEEEEELi1ELb1EE5__getB7v160006Ev, symObjAddr: 0x1E30, symBinAddr: 0x10001C640, symSize: 0x10 }
  - { offsetInCU: 0xC54A, offset: 0x4EF2F, size: 0x8, addend: 0x0, symName: __ZNSt3__114__split_bufferINS_13unordered_mapINS_12basic_stringIcNS_11char_traitsIcEENS_9allocatorIcEEEE4TreeNS_4hashIS7_EENS_8equal_toIS7_EENS5_INS_4pairIKS7_S8_EEEEEERNS5_ISH_EEEC2EmmSJ_, symObjAddr: 0x1FD0, symBinAddr: 0x10001C650, symSize: 0xC0 }
  - { offsetInCU: 0xC5C2, offset: 0x4EFA7, size: 0x8, addend: 0x0, symName: __ZNSt3__117__compressed_pairIPNS_13unordered_mapINS_12basic_stringIcNS_11char_traitsIcEENS_9allocatorIcEEEE4TreeNS_4hashIS7_EENS_8equal_toIS7_EENS5_INS_4pairIKS7_S8_EEEEEERNS5_ISH_EEEC1B7v160006IDnSK_EEOT_OT0_, symObjAddr: 0x2090, symBinAddr: 0x10001C710, symSize: 0x30 }
  - { offsetInCU: 0xC618, offset: 0x4EFFD, size: 0x8, addend: 0x0, symName: __ZNSt3__114__split_bufferINS_13unordered_mapINS_12basic_stringIcNS_11char_traitsIcEENS_9allocatorIcEEEE4TreeNS_4hashIS7_EENS_8equal_toIS7_EENS5_INS_4pairIKS7_S8_EEEEEERNS5_ISH_EEE7__allocB7v160006Ev, symObjAddr: 0x2100, symBinAddr: 0x10001C780, symSize: 0x20 }
  - { offsetInCU: 0xC63C, offset: 0x4F021, size: 0x8, addend: 0x0, symName: __ZNSt3__114__split_bufferINS_13unordered_mapINS_12basic_stringIcNS_11char_traitsIcEENS_9allocatorIcEEEE4TreeNS_4hashIS7_EENS_8equal_toIS7_EENS5_INS_4pairIKS7_S8_EEEEEERNS5_ISH_EEE9__end_capB7v160006Ev, symObjAddr: 0x2120, symBinAddr: 0x10001C7A0, symSize: 0x20 }
  - { offsetInCU: 0xC660, offset: 0x4F045, size: 0x8, addend: 0x0, symName: __ZNSt3__117__compressed_pairIPNS_13unordered_mapINS_12basic_stringIcNS_11char_traitsIcEENS_9allocatorIcEEEE4TreeNS_4hashIS7_EENS_8equal_toIS7_EENS5_INS_4pairIKS7_S8_EEEEEERNS5_ISH_EEEC2B7v160006IDnSK_EEOT_OT0_, symObjAddr: 0x2140, symBinAddr: 0x10001C7C0, symSize: 0x40 }
  - { offsetInCU: 0xC6B6, offset: 0x4F09B, size: 0x8, addend: 0x0, symName: __ZNSt3__122__compressed_pair_elemIRNS_9allocatorINS_13unordered_mapINS_12basic_stringIcNS_11char_traitsIcEENS1_IcEEEE4TreeNS_4hashIS7_EENS_8equal_toIS7_EENS1_INS_4pairIKS7_S8_EEEEEEEELi1ELb0EEC2B7v160006ISJ_vEEOT_, symObjAddr: 0x21A0, symBinAddr: 0x10001C800, symSize: 0x20 }
  - { offsetInCU: 0xC6F6, offset: 0x4F0DB, size: 0x8, addend: 0x0, symName: __ZNSt3__19allocatorINS_13unordered_mapINS_12basic_stringIcNS_11char_traitsIcEENS0_IcEEEE4TreeNS_4hashIS6_EENS_8equal_toIS6_EENS0_INS_4pairIKS6_S7_EEEEEEE8allocateB7v160006Em, symObjAddr: 0x21C0, symBinAddr: 0x10001C820, symSize: 0x80 }
  - { offsetInCU: 0xC728, offset: 0x4F10D, size: 0x8, addend: 0x0, symName: __ZNSt3__117__compressed_pairIPNS_13unordered_mapINS_12basic_stringIcNS_11char_traitsIcEENS_9allocatorIcEEEE4TreeNS_4hashIS7_EENS_8equal_toIS7_EENS5_INS_4pairIKS7_S8_EEEEEERNS5_ISH_EEE6secondB7v160006Ev, symObjAddr: 0x22C0, symBinAddr: 0x10001C8A0, symSize: 0x20 }
  - { offsetInCU: 0xC74C, offset: 0x4F131, size: 0x8, addend: 0x0, symName: __ZNSt3__122__compressed_pair_elemIRNS_9allocatorINS_13unordered_mapINS_12basic_stringIcNS_11char_traitsIcEENS1_IcEEEE4TreeNS_4hashIS7_EENS_8equal_toIS7_EENS1_INS_4pairIKS7_S8_EEEEEEEELi1ELb0EE5__getB7v160006Ev, symObjAddr: 0x22E0, symBinAddr: 0x10001C8C0, symSize: 0x20 }
  - { offsetInCU: 0xC770, offset: 0x4F155, size: 0x8, addend: 0x0, symName: __ZNSt3__117__compressed_pairIPNS_13unordered_mapINS_12basic_stringIcNS_11char_traitsIcEENS_9allocatorIcEEEE4TreeNS_4hashIS7_EENS_8equal_toIS7_EENS5_INS_4pairIKS7_S8_EEEEEERNS5_ISH_EEE5firstB7v160006Ev, symObjAddr: 0x2300, symBinAddr: 0x10001C8E0, symSize: 0x20 }
  - { offsetInCU: 0xC794, offset: 0x4F179, size: 0x8, addend: 0x0, symName: __ZNSt3__116reverse_iteratorIPNS_13unordered_mapINS_12basic_stringIcNS_11char_traitsIcEENS_9allocatorIcEEEE4TreeNS_4hashIS7_EENS_8equal_toIS7_EENS5_INS_4pairIKS7_S8_EEEEEEEC1B7v160006ESI_, symObjAddr: 0x2560, symBinAddr: 0x10001CA90, symSize: 0x30 }
  - { offsetInCU: 0xC7CA, offset: 0x4F1AF, size: 0x8, addend: 0x0, symName: __ZNKSt3__116reverse_iteratorIPNS_13unordered_mapINS_12basic_stringIcNS_11char_traitsIcEENS_9allocatorIcEEEE4TreeNS_4hashIS7_EENS_8equal_toIS7_EENS5_INS_4pairIKS7_S8_EEEEEEE4baseB7v160006Ev, symObjAddr: 0x2590, symBinAddr: 0x10001CAC0, symSize: 0x20 }
  - { offsetInCU: 0xC7EE, offset: 0x4F1D3, size: 0x8, addend: 0x0, symName: __ZNKSt3__16vectorINS_13unordered_mapINS_12basic_stringIcNS_11char_traitsIcEENS_9allocatorIcEEEE4TreeNS_4hashIS7_EENS_8equal_toIS7_EENS5_INS_4pairIKS7_S8_EEEEEENS5_ISH_EEE14__annotate_newB7v160006Em, symObjAddr: 0x25F0, symBinAddr: 0x10001CB20, symSize: 0xA0 }
  - { offsetInCU: 0xC821, offset: 0x4F206, size: 0x8, addend: 0x0, symName: __ZNSt3__129_AllocatorDestroyRangeReverseINS_9allocatorINS_13unordered_mapINS_12basic_stringIcNS_11char_traitsIcEENS1_IcEEEE4TreeNS_4hashIS7_EENS_8equal_toIS7_EENS1_INS_4pairIKS7_S8_EEEEEEEENS_16reverse_iteratorIPSH_EEEC1B7v160006ERSI_RSL_SO_, symObjAddr: 0x2740, symBinAddr: 0x10001CC30, symSize: 0x40 }
  - { offsetInCU: 0xC876, offset: 0x4F25B, size: 0x8, addend: 0x0, symName: __ZNSt3__116allocator_traitsINS_9allocatorINS_13unordered_mapINS_12basic_stringIcNS_11char_traitsIcEENS1_IcEEEE4TreeNS_4hashIS7_EENS_8equal_toIS7_EENS1_INS_4pairIKS7_S8_EEEEEEEEE9constructB7v160006ISH_JRKSH_EvEEvRSI_PT_DpOT0_, symObjAddr: 0x27C0, symBinAddr: 0x10001CCB0, symSize: 0x30 }
  - { offsetInCU: 0xC8CC, offset: 0x4F2B1, size: 0x8, addend: 0x0, symName: __ZNKSt3__116reverse_iteratorIPNS_13unordered_mapINS_12basic_stringIcNS_11char_traitsIcEENS_9allocatorIcEEEE4TreeNS_4hashIS7_EENS_8equal_toIS7_EENS5_INS_4pairIKS7_S8_EEEEEEEdeB7v160006Ev, symObjAddr: 0x2810, symBinAddr: 0x10001CD00, symSize: 0x30 }
  - { offsetInCU: 0xC8FE, offset: 0x4F2E3, size: 0x8, addend: 0x0, symName: __ZNSt3__116reverse_iteratorIPNS_13unordered_mapINS_12basic_stringIcNS_11char_traitsIcEENS_9allocatorIcEEEE4TreeNS_4hashIS7_EENS_8equal_toIS7_EENS5_INS_4pairIKS7_S8_EEEEEEEppB7v160006Ev, symObjAddr: 0x2840, symBinAddr: 0x10001CD30, symSize: 0x20 }
  - { offsetInCU: 0xC922, offset: 0x4F307, size: 0x8, addend: 0x0, symName: __ZNSt3__128__exception_guard_exceptionsINS_29_AllocatorDestroyRangeReverseINS_9allocatorINS_13unordered_mapINS_12basic_stringIcNS_11char_traitsIcEENS2_IcEEEE4TreeNS_4hashIS8_EENS_8equal_toIS8_EENS2_INS_4pairIKS8_S9_EEEEEEEENS_16reverse_iteratorIPSI_EEEEE10__completeB7v160006Ev, symObjAddr: 0x2860, symBinAddr: 0x10001CD50, symSize: 0x20 }
  - { offsetInCU: 0xC946, offset: 0x4F32B, size: 0x8, addend: 0x0, symName: __ZNSt3__128__exception_guard_exceptionsINS_29_AllocatorDestroyRangeReverseINS_9allocatorINS_13unordered_mapINS_12basic_stringIcNS_11char_traitsIcEENS2_IcEEEE4TreeNS_4hashIS8_EENS_8equal_toIS8_EENS2_INS_4pairIKS8_S9_EEEEEEEENS_16reverse_iteratorIPSI_EEEEED1B7v160006Ev, symObjAddr: 0x2880, symBinAddr: 0x10001CD70, symSize: 0x20 }
  - { offsetInCU: 0xC96E, offset: 0x4F353, size: 0x8, addend: 0x0, symName: __ZNSt3__128__exception_guard_exceptionsINS_29_AllocatorDestroyRangeReverseINS_9allocatorINS_13unordered_mapINS_12basic_stringIcNS_11char_traitsIcEENS2_IcEEEE4TreeNS_4hashIS8_EENS_8equal_toIS8_EENS2_INS_4pairIKS8_S9_EEEEEEEENS_16reverse_iteratorIPSI_EEEEEC1B7v160006ESN_, symObjAddr: 0x28A0, symBinAddr: 0x10001CD90, symSize: 0x40 }
  - { offsetInCU: 0xC9A4, offset: 0x4F389, size: 0x8, addend: 0x0, symName: __ZNSt3__128__exception_guard_exceptionsINS_29_AllocatorDestroyRangeReverseINS_9allocatorINS_13unordered_mapINS_12basic_stringIcNS_11char_traitsIcEENS2_IcEEEE4TreeNS_4hashIS8_EENS_8equal_toIS8_EENS2_INS_4pairIKS8_S9_EEEEEEEENS_16reverse_iteratorIPSI_EEEEEC2B7v160006ESN_, symObjAddr: 0x28E0, symBinAddr: 0x10001CDD0, symSize: 0x30 }
  - { offsetInCU: 0xC9DA, offset: 0x4F3BF, size: 0x8, addend: 0x0, symName: __ZNSt3__129_AllocatorDestroyRangeReverseINS_9allocatorINS_13unordered_mapINS_12basic_stringIcNS_11char_traitsIcEENS1_IcEEEE4TreeNS_4hashIS7_EENS_8equal_toIS7_EENS1_INS_4pairIKS7_S8_EEEEEEEENS_16reverse_iteratorIPSH_EEEC2B7v160006ERSI_RSL_SO_, symObjAddr: 0x2910, symBinAddr: 0x10001CE00, symSize: 0x40 }
  - { offsetInCU: 0xCA2F, offset: 0x4F414, size: 0x8, addend: 0x0, symName: __ZNSt3__19allocatorINS_13unordered_mapINS_12basic_stringIcNS_11char_traitsIcEENS0_IcEEEE4TreeNS_4hashIS6_EENS_8equal_toIS6_EENS0_INS_4pairIKS6_S7_EEEEEEE9constructB7v160006ISG_JRKSG_EEEvPT_DpOT0_, symObjAddr: 0x2950, symBinAddr: 0x10001CE40, symSize: 0x30 }
  - { offsetInCU: 0xCA83, offset: 0x4F468, size: 0x8, addend: 0x0, symName: __ZNSt3__113unordered_mapINS_12basic_stringIcNS_11char_traitsIcEENS_9allocatorIcEEEE4TreeNS_4hashIS6_EENS_8equal_toIS6_EENS4_INS_4pairIKS6_S7_EEEEEC1ERKSG_, symObjAddr: 0x2980, symBinAddr: 0x10001CE70, symSize: 0x30 }
  - { offsetInCU: 0xCABD, offset: 0x4F4A2, size: 0x8, addend: 0x0, symName: __ZNSt3__113unordered_mapINS_12basic_stringIcNS_11char_traitsIcEENS_9allocatorIcEEEE4TreeNS_4hashIS6_EENS_8equal_toIS6_EENS4_INS_4pairIKS6_S7_EEEEEC2ERKSG_, symObjAddr: 0x29B0, symBinAddr: 0x10001CEA0, symSize: 0xC0 }
  - { offsetInCU: 0xCAF7, offset: 0x4F4DC, size: 0x8, addend: 0x0, symName: __ZNSt3__112__hash_tableINS_17__hash_value_typeINS_12basic_stringIcNS_11char_traitsIcEENS_9allocatorIcEEEE4TreeEENS_22__unordered_map_hasherIS7_S9_NS_4hashIS7_EENS_8equal_toIS7_EELb1EEENS_21__unordered_map_equalIS7_S9_SE_SC_Lb1EEENS5_IS9_EEEC1ERKSJ_, symObjAddr: 0x2A70, symBinAddr: 0x10001CF60, symSize: 0x30 }
  - { offsetInCU: 0xCB31, offset: 0x4F516, size: 0x8, addend: 0x0, symName: __ZNSt3__112__hash_tableINS_17__hash_value_typeINS_12basic_stringIcNS_11char_traitsIcEENS_9allocatorIcEEEE4TreeEENS_22__unordered_map_hasherIS7_S9_NS_4hashIS7_EENS_8equal_toIS7_EELb1EEENS_21__unordered_map_equalIS7_S9_SE_SC_Lb1EEENS5_IS9_EEE15__rehash_uniqueB7v160006Em, symObjAddr: 0x2AA0, symBinAddr: 0x10001CF90, symSize: 0x30 }
  - { offsetInCU: 0xCB64, offset: 0x4F549, size: 0x8, addend: 0x0, symName: __ZNKSt3__113unordered_mapINS_12basic_stringIcNS_11char_traitsIcEENS_9allocatorIcEEEE4TreeNS_4hashIS6_EENS_8equal_toIS6_EENS4_INS_4pairIKS6_S7_EEEEE12bucket_countB7v160006Ev, symObjAddr: 0x2AD0, symBinAddr: 0x10001CFC0, symSize: 0x20 }
  - { offsetInCU: 0xCB87, offset: 0x4F56C, size: 0x8, addend: 0x0, symName: __ZNSt3__113unordered_mapINS_12basic_stringIcNS_11char_traitsIcEENS_9allocatorIcEEEE4TreeNS_4hashIS6_EENS_8equal_toIS6_EENS4_INS_4pairIKS6_S7_EEEEE6insertINS_25__hash_map_const_iteratorINS_21__hash_const_iteratorIPNS_11__hash_nodeINS_17__hash_value_typeIS6_S7_EEPvEEEEEEEEvT_SS_, symObjAddr: 0x2AF0, symBinAddr: 0x10001CFE0, symSize: 0x70 }
  - { offsetInCU: 0xCBD6, offset: 0x4F5BB, size: 0x8, addend: 0x0, symName: __ZNKSt3__113unordered_mapINS_12basic_stringIcNS_11char_traitsIcEENS_9allocatorIcEEEE4TreeNS_4hashIS6_EENS_8equal_toIS6_EENS4_INS_4pairIKS6_S7_EEEEE5beginB7v160006Ev, symObjAddr: 0x2B60, symBinAddr: 0x10001D050, symSize: 0x30 }
  - { offsetInCU: 0xCBFA, offset: 0x4F5DF, size: 0x8, addend: 0x0, symName: __ZNKSt3__113unordered_mapINS_12basic_stringIcNS_11char_traitsIcEENS_9allocatorIcEEEE4TreeNS_4hashIS6_EENS_8equal_toIS6_EENS4_INS_4pairIKS6_S7_EEEEE3endB7v160006Ev, symObjAddr: 0x2B90, symBinAddr: 0x10001D080, symSize: 0x30 }
  - { offsetInCU: 0xCC1E, offset: 0x4F603, size: 0x8, addend: 0x0, symName: __ZNSt3__112__hash_tableINS_17__hash_value_typeINS_12basic_stringIcNS_11char_traitsIcEENS_9allocatorIcEEEE4TreeEENS_22__unordered_map_hasherIS7_S9_NS_4hashIS7_EENS_8equal_toIS7_EELb1EEENS_21__unordered_map_equalIS7_S9_SE_SC_Lb1EEENS5_IS9_EEEC2ERKSJ_, symObjAddr: 0x2BC0, symBinAddr: 0x10001D0B0, symSize: 0x120 }
  - { offsetInCU: 0xCC62, offset: 0x4F647, size: 0x8, addend: 0x0, symName: __ZNSt3__116allocator_traitsINS_9allocatorIPNS_16__hash_node_baseIPNS_11__hash_nodeINS_17__hash_value_typeINS_12basic_stringIcNS_11char_traitsIcEENS1_IcEEEE4TreeEEPvEEEEEEE37select_on_container_copy_constructionB7v160006ISH_vvEESH_RKSH_, symObjAddr: 0x2CE0, symBinAddr: 0x10001D1D0, symSize: 0x10 }
  - { offsetInCU: 0xCC90, offset: 0x4F675, size: 0x8, addend: 0x0, symName: __ZNKSt3__110unique_ptrIA_PNS_16__hash_node_baseIPNS_11__hash_nodeINS_17__hash_value_typeINS_12basic_stringIcNS_11char_traitsIcEENS_9allocatorIcEEEE4TreeEEPvEEEENS_25__bucket_list_deallocatorINS7_ISG_EEEEE11get_deleterB7v160006Ev, symObjAddr: 0x2CF0, symBinAddr: 0x10001D1E0, symSize: 0x20 }
  - { offsetInCU: 0xCCB4, offset: 0x4F699, size: 0x8, addend: 0x0, symName: __ZNKSt3__125__bucket_list_deallocatorINS_9allocatorIPNS_16__hash_node_baseIPNS_11__hash_nodeINS_17__hash_value_typeINS_12basic_stringIcNS_11char_traitsIcEENS1_IcEEEE4TreeEEPvEEEEEEE7__allocB7v160006Ev, symObjAddr: 0x2D10, symBinAddr: 0x10001D200, symSize: 0x20 }
  - { offsetInCU: 0xCCD8, offset: 0x4F6BD, size: 0x8, addend: 0x0, symName: __ZNSt3__125__bucket_list_deallocatorINS_9allocatorIPNS_16__hash_node_baseIPNS_11__hash_nodeINS_17__hash_value_typeINS_12basic_stringIcNS_11char_traitsIcEENS1_IcEEEE4TreeEEPvEEEEEEEC1B7v160006ERKSH_m, symObjAddr: 0x2D30, symBinAddr: 0x10001D220, symSize: 0x30 }
  - { offsetInCU: 0xCD1E, offset: 0x4F703, size: 0x8, addend: 0x0, symName: __ZNSt3__110unique_ptrIA_PNS_16__hash_node_baseIPNS_11__hash_nodeINS_17__hash_value_typeINS_12basic_stringIcNS_11char_traitsIcEENS_9allocatorIcEEEE4TreeEEPvEEEENS_25__bucket_list_deallocatorINS7_ISG_EEEEEC1B7v160006ILb1EvEEDnNS_16__dependent_typeINS_27__unique_ptr_deleter_sfinaeISK_EEXT_EE20__good_rval_ref_typeE, symObjAddr: 0x2D60, symBinAddr: 0x10001D250, symSize: 0x30 }
  - { offsetInCU: 0xCD75, offset: 0x4F75A, size: 0x8, addend: 0x0, symName: __ZNSt3__116allocator_traitsINS_9allocatorINS_11__hash_nodeINS_17__hash_value_typeINS_12basic_stringIcNS_11char_traitsIcEENS1_IcEEEE4TreeEEPvEEEEE37select_on_container_copy_constructionB7v160006ISD_vvEESD_RKSD_, symObjAddr: 0x2D90, symBinAddr: 0x10001D280, symSize: 0x10 }
  - { offsetInCU: 0xCDA3, offset: 0x4F788, size: 0x8, addend: 0x0, symName: __ZNKSt3__112__hash_tableINS_17__hash_value_typeINS_12basic_stringIcNS_11char_traitsIcEENS_9allocatorIcEEEE4TreeEENS_22__unordered_map_hasherIS7_S9_NS_4hashIS7_EENS_8equal_toIS7_EELb1EEENS_21__unordered_map_equalIS7_S9_SE_SC_Lb1EEENS5_IS9_EEE12__node_allocB7v160006Ev, symObjAddr: 0x2DA0, symBinAddr: 0x10001D290, symSize: 0x20 }
  - { offsetInCU: 0xCDCC, offset: 0x4F7B1, size: 0x8, addend: 0x0, symName: __ZNSt3__117__compressed_pairINS_16__hash_node_baseIPNS_11__hash_nodeINS_17__hash_value_typeINS_12basic_stringIcNS_11char_traitsIcEENS_9allocatorIcEEEE4TreeEEPvEEEENS7_ISD_EEEC1B7v160006INS_18__default_init_tagESG_EEOT_OT0_, symObjAddr: 0x2DC0, symBinAddr: 0x10001D2B0, symSize: 0x30 }
  - { offsetInCU: 0xCE22, offset: 0x4F807, size: 0x8, addend: 0x0, symName: __ZNKSt3__112__hash_tableINS_17__hash_value_typeINS_12basic_stringIcNS_11char_traitsIcEENS_9allocatorIcEEEE4TreeEENS_22__unordered_map_hasherIS7_S9_NS_4hashIS7_EENS_8equal_toIS7_EELb1EEENS_21__unordered_map_equalIS7_S9_SE_SC_Lb1EEENS5_IS9_EEE13hash_functionB7v160006Ev, symObjAddr: 0x2DF0, symBinAddr: 0x10001D2E0, symSize: 0x20 }
  - { offsetInCU: 0xCE46, offset: 0x4F82B, size: 0x8, addend: 0x0, symName: __ZNSt3__117__compressed_pairImNS_22__unordered_map_hasherINS_12basic_stringIcNS_11char_traitsIcEENS_9allocatorIcEEEENS_17__hash_value_typeIS7_4TreeEENS_4hashIS7_EENS_8equal_toIS7_EELb1EEEEC1B7v160006IiRKSF_EEOT_OT0_, symObjAddr: 0x2E10, symBinAddr: 0x10001D300, symSize: 0x30 }
  - { offsetInCU: 0xCE9C, offset: 0x4F881, size: 0x8, addend: 0x0, symName: __ZNKSt3__117__compressed_pairIPPNS_16__hash_node_baseIPNS_11__hash_nodeINS_17__hash_value_typeINS_12basic_stringIcNS_11char_traitsIcEENS_9allocatorIcEEEE4TreeEEPvEEEENS_25__bucket_list_deallocatorINS7_ISG_EEEEE6secondB7v160006Ev, symObjAddr: 0x2E40, symBinAddr: 0x10001D330, symSize: 0x20 }
  - { offsetInCU: 0xCEC0, offset: 0x4F8A5, size: 0x8, addend: 0x0, symName: __ZNKSt3__122__compressed_pair_elemINS_25__bucket_list_deallocatorINS_9allocatorIPNS_16__hash_node_baseIPNS_11__hash_nodeINS_17__hash_value_typeINS_12basic_stringIcNS_11char_traitsIcEENS2_IcEEEE4TreeEEPvEEEEEEEELi1ELb0EE5__getB7v160006Ev, symObjAddr: 0x2E60, symBinAddr: 0x10001D350, symSize: 0x10 }
  - { offsetInCU: 0xCEE4, offset: 0x4F8C9, size: 0x8, addend: 0x0, symName: __ZNKSt3__117__compressed_pairImNS_9allocatorIPNS_16__hash_node_baseIPNS_11__hash_nodeINS_17__hash_value_typeINS_12basic_stringIcNS_11char_traitsIcEENS1_IcEEEE4TreeEEPvEEEEEEE6secondB7v160006Ev, symObjAddr: 0x2E70, symBinAddr: 0x10001D360, symSize: 0x20 }
  - { offsetInCU: 0xCF08, offset: 0x4F8ED, size: 0x8, addend: 0x0, symName: __ZNKSt3__122__compressed_pair_elemINS_9allocatorIPNS_16__hash_node_baseIPNS_11__hash_nodeINS_17__hash_value_typeINS_12basic_stringIcNS_11char_traitsIcEENS1_IcEEEE4TreeEEPvEEEEEELi1ELb1EE5__getB7v160006Ev, symObjAddr: 0x2E90, symBinAddr: 0x10001D380, symSize: 0x10 }
  - { offsetInCU: 0xCF2C, offset: 0x4F911, size: 0x8, addend: 0x0, symName: __ZNSt3__125__bucket_list_deallocatorINS_9allocatorIPNS_16__hash_node_baseIPNS_11__hash_nodeINS_17__hash_value_typeINS_12basic_stringIcNS_11char_traitsIcEENS1_IcEEEE4TreeEEPvEEEEEEEC2B7v160006ERKSH_m, symObjAddr: 0x2EA0, symBinAddr: 0x10001D390, symSize: 0x30 }
  - { offsetInCU: 0xCF72, offset: 0x4F957, size: 0x8, addend: 0x0, symName: __ZNSt3__117__compressed_pairImNS_9allocatorIPNS_16__hash_node_baseIPNS_11__hash_nodeINS_17__hash_value_typeINS_12basic_stringIcNS_11char_traitsIcEENS1_IcEEEE4TreeEEPvEEEEEEEC1B7v160006IRmRKSH_EEOT_OT0_, symObjAddr: 0x2ED0, symBinAddr: 0x10001D3C0, symSize: 0x30 }
  - { offsetInCU: 0xCFC8, offset: 0x4F9AD, size: 0x8, addend: 0x0, symName: __ZNSt3__117__compressed_pairImNS_9allocatorIPNS_16__hash_node_baseIPNS_11__hash_nodeINS_17__hash_value_typeINS_12basic_stringIcNS_11char_traitsIcEENS1_IcEEEE4TreeEEPvEEEEEEEC2B7v160006IRmRKSH_EEOT_OT0_, symObjAddr: 0x2F00, symBinAddr: 0x10001D3F0, symSize: 0x40 }
  - { offsetInCU: 0xD01E, offset: 0x4FA03, size: 0x8, addend: 0x0, symName: __ZNSt3__122__compressed_pair_elemImLi0ELb0EEC2B7v160006IRmvEEOT_, symObjAddr: 0x2F40, symBinAddr: 0x10001D430, symSize: 0x20 }
  - { offsetInCU: 0xD05E, offset: 0x4FA43, size: 0x8, addend: 0x0, symName: __ZNSt3__122__compressed_pair_elemINS_9allocatorIPNS_16__hash_node_baseIPNS_11__hash_nodeINS_17__hash_value_typeINS_12basic_stringIcNS_11char_traitsIcEENS1_IcEEEE4TreeEEPvEEEEEELi1ELb1EEC2B7v160006IRKSH_vEEOT_, symObjAddr: 0x2F60, symBinAddr: 0x10001D450, symSize: 0x10 }
  - { offsetInCU: 0xD09E, offset: 0x4FA83, size: 0x8, addend: 0x0, symName: __ZNSt3__110unique_ptrIA_PNS_16__hash_node_baseIPNS_11__hash_nodeINS_17__hash_value_typeINS_12basic_stringIcNS_11char_traitsIcEENS_9allocatorIcEEEE4TreeEEPvEEEENS_25__bucket_list_deallocatorINS7_ISG_EEEEEC2B7v160006ILb1EvEEDnNS_16__dependent_typeINS_27__unique_ptr_deleter_sfinaeISK_EEXT_EE20__good_rval_ref_typeE, symObjAddr: 0x2F70, symBinAddr: 0x10001D460, symSize: 0x50 }
  - { offsetInCU: 0xD0EB, offset: 0x4FAD0, size: 0x8, addend: 0x0, symName: __ZNSt3__117__compressed_pairIPPNS_16__hash_node_baseIPNS_11__hash_nodeINS_17__hash_value_typeINS_12basic_stringIcNS_11char_traitsIcEENS_9allocatorIcEEEE4TreeEEPvEEEENS_25__bucket_list_deallocatorINS7_ISG_EEEEEC1B7v160006IDnSK_EEOT_OT0_, symObjAddr: 0x2FC0, symBinAddr: 0x10001D4B0, symSize: 0x30 }
  - { offsetInCU: 0xD141, offset: 0x4FB26, size: 0x8, addend: 0x0, symName: __ZNSt3__117__compressed_pairIPPNS_16__hash_node_baseIPNS_11__hash_nodeINS_17__hash_value_typeINS_12basic_stringIcNS_11char_traitsIcEENS_9allocatorIcEEEE4TreeEEPvEEEENS_25__bucket_list_deallocatorINS7_ISG_EEEEEC2B7v160006IDnSK_EEOT_OT0_, symObjAddr: 0x2FF0, symBinAddr: 0x10001D4E0, symSize: 0x40 }
  - { offsetInCU: 0xD197, offset: 0x4FB7C, size: 0x8, addend: 0x0, symName: __ZNSt3__122__compressed_pair_elemIPPNS_16__hash_node_baseIPNS_11__hash_nodeINS_17__hash_value_typeINS_12basic_stringIcNS_11char_traitsIcEENS_9allocatorIcEEEE4TreeEEPvEEEELi0ELb0EEC2B7v160006IDnvEEOT_, symObjAddr: 0x3030, symBinAddr: 0x10001D520, symSize: 0x20 }
  - { offsetInCU: 0xD1D7, offset: 0x4FBBC, size: 0x8, addend: 0x0, symName: __ZNSt3__122__compressed_pair_elemINS_25__bucket_list_deallocatorINS_9allocatorIPNS_16__hash_node_baseIPNS_11__hash_nodeINS_17__hash_value_typeINS_12basic_stringIcNS_11char_traitsIcEENS2_IcEEEE4TreeEEPvEEEEEEEELi1ELb0EEC2B7v160006ISJ_vEEOT_, symObjAddr: 0x3050, symBinAddr: 0x10001D540, symSize: 0x30 }
  - { offsetInCU: 0xD217, offset: 0x4FBFC, size: 0x8, addend: 0x0, symName: __ZNSt3__125__bucket_list_deallocatorINS_9allocatorIPNS_16__hash_node_baseIPNS_11__hash_nodeINS_17__hash_value_typeINS_12basic_stringIcNS_11char_traitsIcEENS1_IcEEEE4TreeEEPvEEEEEEEC1B7v160006EOSI_, symObjAddr: 0x3080, symBinAddr: 0x10001D570, symSize: 0x30 }
  - { offsetInCU: 0xD24E, offset: 0x4FC33, size: 0x8, addend: 0x0, symName: __ZNSt3__125__bucket_list_deallocatorINS_9allocatorIPNS_16__hash_node_baseIPNS_11__hash_nodeINS_17__hash_value_typeINS_12basic_stringIcNS_11char_traitsIcEENS1_IcEEEE4TreeEEPvEEEEEEEC2B7v160006EOSI_, symObjAddr: 0x30B0, symBinAddr: 0x10001D5A0, symSize: 0x40 }
  - { offsetInCU: 0xD285, offset: 0x4FC6A, size: 0x8, addend: 0x0, symName: __ZNKSt3__117__compressed_pairINS_16__hash_node_baseIPNS_11__hash_nodeINS_17__hash_value_typeINS_12basic_stringIcNS_11char_traitsIcEENS_9allocatorIcEEEE4TreeEEPvEEEENS7_ISD_EEE6secondB7v160006Ev, symObjAddr: 0x30F0, symBinAddr: 0x10001D5E0, symSize: 0x20 }
  - { offsetInCU: 0xD2A9, offset: 0x4FC8E, size: 0x8, addend: 0x0, symName: __ZNKSt3__122__compressed_pair_elemINS_9allocatorINS_11__hash_nodeINS_17__hash_value_typeINS_12basic_stringIcNS_11char_traitsIcEENS1_IcEEEE4TreeEEPvEEEELi1ELb1EE5__getB7v160006Ev, symObjAddr: 0x3110, symBinAddr: 0x10001D600, symSize: 0x10 }
  - { offsetInCU: 0xD2CD, offset: 0x4FCB2, size: 0x8, addend: 0x0, symName: __ZNSt3__117__compressed_pairINS_16__hash_node_baseIPNS_11__hash_nodeINS_17__hash_value_typeINS_12basic_stringIcNS_11char_traitsIcEENS_9allocatorIcEEEE4TreeEEPvEEEENS7_ISD_EEEC2B7v160006INS_18__default_init_tagESG_EEOT_OT0_, symObjAddr: 0x3120, symBinAddr: 0x10001D610, symSize: 0x40 }
  - { offsetInCU: 0xD323, offset: 0x4FD08, size: 0x8, addend: 0x0, symName: __ZNSt3__122__compressed_pair_elemINS_16__hash_node_baseIPNS_11__hash_nodeINS_17__hash_value_typeINS_12basic_stringIcNS_11char_traitsIcEENS_9allocatorIcEEEE4TreeEEPvEEEELi0ELb0EEC2B7v160006ENS_18__default_init_tagE, symObjAddr: 0x3160, symBinAddr: 0x10001D650, symSize: 0x20 }
  - { offsetInCU: 0xD356, offset: 0x4FD3B, size: 0x8, addend: 0x0, symName: __ZNSt3__122__compressed_pair_elemINS_9allocatorINS_11__hash_nodeINS_17__hash_value_typeINS_12basic_stringIcNS_11char_traitsIcEENS1_IcEEEE4TreeEEPvEEEELi1ELb1EEC2B7v160006ISD_vEEOT_, symObjAddr: 0x3180, symBinAddr: 0x10001D670, symSize: 0x10 }
  - { offsetInCU: 0xD396, offset: 0x4FD7B, size: 0x8, addend: 0x0, symName: __ZNKSt3__117__compressed_pairImNS_22__unordered_map_hasherINS_12basic_stringIcNS_11char_traitsIcEENS_9allocatorIcEEEENS_17__hash_value_typeIS7_4TreeEENS_4hashIS7_EENS_8equal_toIS7_EELb1EEEE6secondB7v160006Ev, symObjAddr: 0x3190, symBinAddr: 0x10001D680, symSize: 0x20 }
  - { offsetInCU: 0xD3BA, offset: 0x4FD9F, size: 0x8, addend: 0x0, symName: __ZNKSt3__122__compressed_pair_elemINS_22__unordered_map_hasherINS_12basic_stringIcNS_11char_traitsIcEENS_9allocatorIcEEEENS_17__hash_value_typeIS7_4TreeEENS_4hashIS7_EENS_8equal_toIS7_EELb1EEELi1ELb1EE5__getB7v160006Ev, symObjAddr: 0x31B0, symBinAddr: 0x10001D6A0, symSize: 0x10 }
  - { offsetInCU: 0xD3DE, offset: 0x4FDC3, size: 0x8, addend: 0x0, symName: __ZNSt3__117__compressed_pairImNS_22__unordered_map_hasherINS_12basic_stringIcNS_11char_traitsIcEENS_9allocatorIcEEEENS_17__hash_value_typeIS7_4TreeEENS_4hashIS7_EENS_8equal_toIS7_EELb1EEEEC2B7v160006IiRKSF_EEOT_OT0_, symObjAddr: 0x31C0, symBinAddr: 0x10001D6B0, symSize: 0x40 }
  - { offsetInCU: 0xD434, offset: 0x4FE19, size: 0x8, addend: 0x0, symName: __ZNSt3__122__compressed_pair_elemINS_22__unordered_map_hasherINS_12basic_stringIcNS_11char_traitsIcEENS_9allocatorIcEEEENS_17__hash_value_typeIS7_4TreeEENS_4hashIS7_EENS_8equal_toIS7_EELb1EEELi1ELb1EEC2B7v160006IRKSF_vEEOT_, symObjAddr: 0x3200, symBinAddr: 0x10001D6F0, symSize: 0x10 }
  - { offsetInCU: 0xD473, offset: 0x4FE58, size: 0x8, addend: 0x0, symName: __ZNSt3__112__hash_tableINS_17__hash_value_typeINS_12basic_stringIcNS_11char_traitsIcEENS_9allocatorIcEEEE4TreeEENS_22__unordered_map_hasherIS7_S9_NS_4hashIS7_EENS_8equal_toIS7_EELb1EEENS_21__unordered_map_equalIS7_S9_SE_SC_Lb1EEENS5_IS9_EEE8__rehashILb1EEEvm, symObjAddr: 0x3210, symBinAddr: 0x10001D700, symSize: 0x230 }
  - { offsetInCU: 0xD4C3, offset: 0x4FEA8, size: 0x8, addend: 0x0, symName: __ZNKSt3__112__hash_tableINS_17__hash_value_typeINS_12basic_stringIcNS_11char_traitsIcEENS_9allocatorIcEEEE4TreeEENS_22__unordered_map_hasherIS7_S9_NS_4hashIS7_EENS_8equal_toIS7_EELb1EEENS_21__unordered_map_equalIS7_S9_SE_SC_Lb1EEENS5_IS9_EEE12bucket_countB7v160006Ev, symObjAddr: 0x3440, symBinAddr: 0x10001D930, symSize: 0x30 }
  - { offsetInCU: 0xD4E6, offset: 0x4FECB, size: 0x8, addend: 0x0, symName: __ZNSt3__112__hash_tableINS_17__hash_value_typeINS_12basic_stringIcNS_11char_traitsIcEENS_9allocatorIcEEEE4TreeEENS_22__unordered_map_hasherIS7_S9_NS_4hashIS7_EENS_8equal_toIS7_EELb1EEENS_21__unordered_map_equalIS7_S9_SE_SC_Lb1EEENS5_IS9_EEE11__do_rehashILb1EEEvm, symObjAddr: 0x3470, symBinAddr: 0x10001D960, symSize: 0x260 }
  - { offsetInCU: 0xD5CC, offset: 0x4FFB1, size: 0x8, addend: 0x0, symName: __Z4ceilB7v160006f, symObjAddr: 0x3770, symBinAddr: 0x10001DC60, symSize: 0x20 }
  - { offsetInCU: 0xD5FB, offset: 0x4FFE0, size: 0x8, addend: 0x0, symName: __ZNSt3__112__hash_tableINS_17__hash_value_typeINS_12basic_stringIcNS_11char_traitsIcEENS_9allocatorIcEEEE4TreeEENS_22__unordered_map_hasherIS7_S9_NS_4hashIS7_EENS_8equal_toIS7_EELb1EEENS_21__unordered_map_equalIS7_S9_SE_SC_Lb1EEENS5_IS9_EEE4sizeB7v160006Ev, symObjAddr: 0x3790, symBinAddr: 0x10001DC80, symSize: 0x20 }
  - { offsetInCU: 0xD61F, offset: 0x50004, size: 0x8, addend: 0x0, symName: __ZNSt3__112__hash_tableINS_17__hash_value_typeINS_12basic_stringIcNS_11char_traitsIcEENS_9allocatorIcEEEE4TreeEENS_22__unordered_map_hasherIS7_S9_NS_4hashIS7_EENS_8equal_toIS7_EELb1EEENS_21__unordered_map_equalIS7_S9_SE_SC_Lb1EEENS5_IS9_EEE15max_load_factorB7v160006Ev, symObjAddr: 0x37B0, symBinAddr: 0x10001DCA0, symSize: 0x20 }
  - { offsetInCU: 0xD643, offset: 0x50028, size: 0x8, addend: 0x0, symName: __ZNKSt3__125__bucket_list_deallocatorINS_9allocatorIPNS_16__hash_node_baseIPNS_11__hash_nodeINS_17__hash_value_typeINS_12basic_stringIcNS_11char_traitsIcEENS1_IcEEEE4TreeEEPvEEEEEEE4sizeB7v160006Ev, symObjAddr: 0x37D0, symBinAddr: 0x10001DCC0, symSize: 0x20 }
  - { offsetInCU: 0xD667, offset: 0x5004C, size: 0x8, addend: 0x0, symName: __ZNKSt3__117__compressed_pairImNS_9allocatorIPNS_16__hash_node_baseIPNS_11__hash_nodeINS_17__hash_value_typeINS_12basic_stringIcNS_11char_traitsIcEENS1_IcEEEE4TreeEEPvEEEEEEE5firstB7v160006Ev, symObjAddr: 0x37F0, symBinAddr: 0x10001DCE0, symSize: 0x20 }
  - { offsetInCU: 0xD68B, offset: 0x50070, size: 0x8, addend: 0x0, symName: __ZNSt3__110unique_ptrIA_PNS_16__hash_node_baseIPNS_11__hash_nodeINS_17__hash_value_typeINS_12basic_stringIcNS_11char_traitsIcEENS_9allocatorIcEEEE4TreeEEPvEEEENS_25__bucket_list_deallocatorINS7_ISG_EEEEE11get_deleterB7v160006Ev, symObjAddr: 0x3830, symBinAddr: 0x10001DD10, symSize: 0x20 }
  - { offsetInCU: 0xD6AF, offset: 0x50094, size: 0x8, addend: 0x0, symName: __ZNSt3__110unique_ptrIA_PNS_16__hash_node_baseIPNS_11__hash_nodeINS_17__hash_value_typeINS_12basic_stringIcNS_11char_traitsIcEENS_9allocatorIcEEEE4TreeEEPvEEEENS_25__bucket_list_deallocatorINS7_ISG_EEEEE5resetB7v160006IPSG_EENS_9enable_ifIXsr28_CheckArrayPointerConversionIT_EE5valueEvE4typeESP_, symObjAddr: 0x3850, symBinAddr: 0x10001DD30, symSize: 0x70 }
  - { offsetInCU: 0xD6FA, offset: 0x500DF, size: 0x8, addend: 0x0, symName: __ZNSt3__116allocator_traitsINS_9allocatorIPNS_16__hash_node_baseIPNS_11__hash_nodeINS_17__hash_value_typeINS_12basic_stringIcNS_11char_traitsIcEENS1_IcEEEE4TreeEEPvEEEEEEE8allocateB7v160006ERSH_m, symObjAddr: 0x38C0, symBinAddr: 0x10001DDA0, symSize: 0x30 }
  - { offsetInCU: 0xD72C, offset: 0x50111, size: 0x8, addend: 0x0, symName: __ZNKSt3__110unique_ptrIA_PNS_16__hash_node_baseIPNS_11__hash_nodeINS_17__hash_value_typeINS_12basic_stringIcNS_11char_traitsIcEENS_9allocatorIcEEEE4TreeEEPvEEEENS_25__bucket_list_deallocatorINS7_ISG_EEEEEixB7v160006Em, symObjAddr: 0x38F0, symBinAddr: 0x10001DDD0, symSize: 0x30 }
  - { offsetInCU: 0xD75F, offset: 0x50144, size: 0x8, addend: 0x0, symName: __ZNSt3__116__hash_node_baseIPNS_11__hash_nodeINS_17__hash_value_typeINS_12basic_stringIcNS_11char_traitsIcEENS_9allocatorIcEEEE4TreeEEPvEEE5__ptrB7v160006Ev, symObjAddr: 0x3920, symBinAddr: 0x10001DE00, symSize: 0x20 }
  - { offsetInCU: 0xD783, offset: 0x50168, size: 0x8, addend: 0x0, symName: __ZNKSt3__116__hash_node_baseIPNS_11__hash_nodeINS_17__hash_value_typeINS_12basic_stringIcNS_11char_traitsIcEENS_9allocatorIcEEEE4TreeEEPvEEE6__hashB7v160006Ev, symObjAddr: 0x39C0, symBinAddr: 0x10001DEA0, symSize: 0x20 }
  - { offsetInCU: 0xD7A7, offset: 0x5018C, size: 0x8, addend: 0x0, symName: __ZNSt3__19allocatorIPNS_16__hash_node_baseIPNS_11__hash_nodeINS_17__hash_value_typeINS_12basic_stringIcNS_11char_traitsIcEENS0_IcEEEE4TreeEEPvEEEEE8allocateB7v160006Em, symObjAddr: 0x39E0, symBinAddr: 0x10001DEC0, symSize: 0x80 }
  - { offsetInCU: 0xD7D9, offset: 0x501BE, size: 0x8, addend: 0x0, symName: __ZNSt3__116allocator_traitsINS_9allocatorIPNS_16__hash_node_baseIPNS_11__hash_nodeINS_17__hash_value_typeINS_12basic_stringIcNS_11char_traitsIcEENS1_IcEEEE4TreeEEPvEEEEEEE8max_sizeB7v160006ISH_vEEmRKSH_, symObjAddr: 0x3A60, symBinAddr: 0x10001DF40, symSize: 0x20 }
  - { offsetInCU: 0xD806, offset: 0x501EB, size: 0x8, addend: 0x0, symName: __ZNKSt3__19allocatorIPNS_16__hash_node_baseIPNS_11__hash_nodeINS_17__hash_value_typeINS_12basic_stringIcNS_11char_traitsIcEENS0_IcEEEE4TreeEEPvEEEEE8max_sizeB7v160006Ev, symObjAddr: 0x3A80, symBinAddr: 0x10001DF60, symSize: 0x20 }
  - { offsetInCU: 0xD82A, offset: 0x5020F, size: 0x8, addend: 0x0, symName: __ZNKSt3__117__compressed_pairIPPNS_16__hash_node_baseIPNS_11__hash_nodeINS_17__hash_value_typeINS_12basic_stringIcNS_11char_traitsIcEENS_9allocatorIcEEEE4TreeEEPvEEEENS_25__bucket_list_deallocatorINS7_ISG_EEEEE5firstB7v160006Ev, symObjAddr: 0x3AA0, symBinAddr: 0x10001DF80, symSize: 0x20 }
  - { offsetInCU: 0xD84E, offset: 0x50233, size: 0x8, addend: 0x0, symName: __ZNKSt3__122__compressed_pair_elemIPPNS_16__hash_node_baseIPNS_11__hash_nodeINS_17__hash_value_typeINS_12basic_stringIcNS_11char_traitsIcEENS_9allocatorIcEEEE4TreeEEPvEEEELi0ELb0EE5__getB7v160006Ev, symObjAddr: 0x3AC0, symBinAddr: 0x10001DFA0, symSize: 0x10 }
  - { offsetInCU: 0xD872, offset: 0x50257, size: 0x8, addend: 0x0, symName: __ZNSt3__117__compressed_pairImNS_22__unordered_map_hasherINS_12basic_stringIcNS_11char_traitsIcEENS_9allocatorIcEEEENS_17__hash_value_typeIS7_4TreeEENS_4hashIS7_EENS_8equal_toIS7_EELb1EEEE5firstB7v160006Ev, symObjAddr: 0x3AF0, symBinAddr: 0x10001DFD0, symSize: 0x20 }
  - { offsetInCU: 0xD896, offset: 0x5027B, size: 0x8, addend: 0x0, symName: __ZNSt3__117__compressed_pairIfNS_21__unordered_map_equalINS_12basic_stringIcNS_11char_traitsIcEENS_9allocatorIcEEEENS_17__hash_value_typeIS7_4TreeEENS_8equal_toIS7_EENS_4hashIS7_EELb1EEEE5firstB7v160006Ev, symObjAddr: 0x3B10, symBinAddr: 0x10001DFF0, symSize: 0x20 }
  - { offsetInCU: 0xD8BA, offset: 0x5029F, size: 0x8, addend: 0x0, symName: __ZNSt3__122__compressed_pair_elemIfLi0ELb0EE5__getB7v160006Ev, symObjAddr: 0x3B30, symBinAddr: 0x10001E010, symSize: 0x10 }
  - { offsetInCU: 0xD8DE, offset: 0x502C3, size: 0x8, addend: 0x0, symName: __ZNSt3__112__hash_tableINS_17__hash_value_typeINS_12basic_stringIcNS_11char_traitsIcEENS_9allocatorIcEEEE4TreeEENS_22__unordered_map_hasherIS7_S9_NS_4hashIS7_EENS_8equal_toIS7_EELb1EEENS_21__unordered_map_equalIS7_S9_SE_SC_Lb1EEENS5_IS9_EEE15__insert_uniqueB7v160006ERKNS_4pairIKS7_S8_EE, symObjAddr: 0x3B70, symBinAddr: 0x10001E050, symSize: 0x50 }
  - { offsetInCU: 0xD911, offset: 0x502F6, size: 0x8, addend: 0x0, symName: __ZNKSt3__125__hash_map_const_iteratorINS_21__hash_const_iteratorIPNS_11__hash_nodeINS_17__hash_value_typeINS_12basic_stringIcNS_11char_traitsIcEENS_9allocatorIcEEEE4TreeEEPvEEEEEdeB7v160006Ev, symObjAddr: 0x3BC0, symBinAddr: 0x10001E0A0, symSize: 0x30 }
  - { offsetInCU: 0xD935, offset: 0x5031A, size: 0x8, addend: 0x0, symName: __ZNSt3__125__hash_map_const_iteratorINS_21__hash_const_iteratorIPNS_11__hash_nodeINS_17__hash_value_typeINS_12basic_stringIcNS_11char_traitsIcEENS_9allocatorIcEEEE4TreeEEPvEEEEEppB7v160006Ev, symObjAddr: 0x3BF0, symBinAddr: 0x10001E0D0, symSize: 0x30 }
  - { offsetInCU: 0xD958, offset: 0x5033D, size: 0x8, addend: 0x0, symName: __ZNSt3__112__hash_tableINS_17__hash_value_typeINS_12basic_stringIcNS_11char_traitsIcEENS_9allocatorIcEEEE4TreeEENS_22__unordered_map_hasherIS7_S9_NS_4hashIS7_EENS_8equal_toIS7_EELb1EEENS_21__unordered_map_equalIS7_S9_SE_SC_Lb1EEENS5_IS9_EEE25__emplace_unique_key_argsIS7_JRKNS_4pairIKS7_S8_EEEEENSL_INS_15__hash_iteratorIPNS_11__hash_nodeIS9_PvEEEEbEERKT_DpOT0_, symObjAddr: 0x3C80, symBinAddr: 0x10001E160, symSize: 0x5A0 }
  - { offsetInCU: 0xDA37, offset: 0x5041C, size: 0x8, addend: 0x0, symName: __ZNSt3__122__hash_key_value_typesINS_17__hash_value_typeINS_12basic_stringIcNS_11char_traitsIcEENS_9allocatorIcEEEE4TreeEEE9__get_keyB7v160006ERKNS_4pairIKS7_S8_EE, symObjAddr: 0x4220, symBinAddr: 0x10001E700, symSize: 0x10 }
  - { offsetInCU: 0xDA59, offset: 0x5043E, size: 0x8, addend: 0x0, symName: __ZNSt3__112__hash_tableINS_17__hash_value_typeINS_12basic_stringIcNS_11char_traitsIcEENS_9allocatorIcEEEE4TreeEENS_22__unordered_map_hasherIS7_S9_NS_4hashIS7_EENS_8equal_toIS7_EELb1EEENS_21__unordered_map_equalIS7_S9_SE_SC_Lb1EEENS5_IS9_EEE13hash_functionB7v160006Ev, symObjAddr: 0x4230, symBinAddr: 0x10001E710, symSize: 0x20 }
  - { offsetInCU: 0xDA7D, offset: 0x50462, size: 0x8, addend: 0x0, symName: __ZNKSt3__122__unordered_map_hasherINS_12basic_stringIcNS_11char_traitsIcEENS_9allocatorIcEEEENS_17__hash_value_typeIS6_4TreeEENS_4hashIS6_EENS_8equal_toIS6_EELb1EEclB7v160006ERKS6_, symObjAddr: 0x4250, symBinAddr: 0x10001E730, symSize: 0x30 }
  - { offsetInCU: 0xDAB0, offset: 0x50495, size: 0x8, addend: 0x0, symName: __ZNSt3__112__hash_tableINS_17__hash_value_typeINS_12basic_stringIcNS_11char_traitsIcEENS_9allocatorIcEEEE4TreeEENS_22__unordered_map_hasherIS7_S9_NS_4hashIS7_EENS_8equal_toIS7_EELb1EEENS_21__unordered_map_equalIS7_S9_SE_SC_Lb1EEENS5_IS9_EEE6key_eqB7v160006Ev, symObjAddr: 0x4280, symBinAddr: 0x10001E760, symSize: 0x20 }
  - { offsetInCU: 0xDAD4, offset: 0x504B9, size: 0x8, addend: 0x0, symName: __ZNKSt3__121__unordered_map_equalINS_12basic_stringIcNS_11char_traitsIcEENS_9allocatorIcEEEENS_17__hash_value_typeIS6_4TreeEENS_8equal_toIS6_EENS_4hashIS6_EELb1EEclB7v160006ERKS9_RKS6_, symObjAddr: 0x42A0, symBinAddr: 0x10001E780, symSize: 0x40 }
  - { offsetInCU: 0xDB15, offset: 0x504FA, size: 0x8, addend: 0x0, symName: __ZNSt3__112__hash_tableINS_17__hash_value_typeINS_12basic_stringIcNS_11char_traitsIcEENS_9allocatorIcEEEE4TreeEENS_22__unordered_map_hasherIS7_S9_NS_4hashIS7_EENS_8equal_toIS7_EELb1EEENS_21__unordered_map_equalIS7_S9_SE_SC_Lb1EEENS5_IS9_EEE21__construct_node_hashIRKNS_4pairIKS7_S8_EEJEEENS_10unique_ptrINS_11__hash_nodeIS9_PvEENS_22__hash_node_destructorINS5_IST_EEEEEEmOT_DpOT0_, symObjAddr: 0x42E0, symBinAddr: 0x10001E7C0, symSize: 0x140 }
  - { offsetInCU: 0xDB88, offset: 0x5056D, size: 0x8, addend: 0x0, symName: __ZNKSt3__110unique_ptrINS_11__hash_nodeINS_17__hash_value_typeINS_12basic_stringIcNS_11char_traitsIcEENS_9allocatorIcEEEE4TreeEEPvEENS_22__hash_node_destructorINS6_ISC_EEEEEptB7v160006Ev, symObjAddr: 0x4420, symBinAddr: 0x10001E900, symSize: 0x20 }
  - { offsetInCU: 0xDBAC, offset: 0x50591, size: 0x8, addend: 0x0, symName: __ZNKSt3__110unique_ptrINS_11__hash_nodeINS_17__hash_value_typeINS_12basic_stringIcNS_11char_traitsIcEENS_9allocatorIcEEEE4TreeEEPvEENS_22__hash_node_destructorINS6_ISC_EEEEE3getB7v160006Ev, symObjAddr: 0x4440, symBinAddr: 0x10001E920, symSize: 0x20 }
  - { offsetInCU: 0xDBD0, offset: 0x505B5, size: 0x8, addend: 0x0, symName: __ZNSt3__110unique_ptrINS_11__hash_nodeINS_17__hash_value_typeINS_12basic_stringIcNS_11char_traitsIcEENS_9allocatorIcEEEE4TreeEEPvEENS_22__hash_node_destructorINS6_ISC_EEEEE7releaseB7v160006Ev, symObjAddr: 0x4460, symBinAddr: 0x10001E940, symSize: 0x40 }
  - { offsetInCU: 0xDC03, offset: 0x505E8, size: 0x8, addend: 0x0, symName: __ZNSt3__110unique_ptrINS_11__hash_nodeINS_17__hash_value_typeINS_12basic_stringIcNS_11char_traitsIcEENS_9allocatorIcEEEE4TreeEEPvEENS_22__hash_node_destructorINS6_ISC_EEEEED1B7v160006Ev, symObjAddr: 0x44A0, symBinAddr: 0x10001E980, symSize: 0x20 }
  - { offsetInCU: 0xDC2B, offset: 0x50610, size: 0x8, addend: 0x0, symName: __ZNSt3__115__hash_iteratorIPNS_11__hash_nodeINS_17__hash_value_typeINS_12basic_stringIcNS_11char_traitsIcEENS_9allocatorIcEEEE4TreeEEPvEEEC1B7v160006EPNS_16__hash_node_baseISD_EEPKv, symObjAddr: 0x44C0, symBinAddr: 0x10001E9A0, symSize: 0x30 }
  - { offsetInCU: 0xDC71, offset: 0x50656, size: 0x8, addend: 0x0, symName: __ZNSt3__14pairINS_15__hash_iteratorIPNS_11__hash_nodeINS_17__hash_value_typeINS_12basic_stringIcNS_11char_traitsIcEENS_9allocatorIcEEEE4TreeEEPvEEEEbEC1B7v160006ERKSF_RKb, symObjAddr: 0x44F0, symBinAddr: 0x10001E9D0, symSize: 0x30 }
  - { offsetInCU: 0xDCB5, offset: 0x5069A, size: 0x8, addend: 0x0, symName: __ZNSt3__117__compressed_pairImNS_22__unordered_map_hasherINS_12basic_stringIcNS_11char_traitsIcEENS_9allocatorIcEEEENS_17__hash_value_typeIS7_4TreeEENS_4hashIS7_EENS_8equal_toIS7_EELb1EEEE6secondB7v160006Ev, symObjAddr: 0x4520, symBinAddr: 0x10001EA00, symSize: 0x20 }
  - { offsetInCU: 0xDCD9, offset: 0x506BE, size: 0x8, addend: 0x0, symName: __ZNSt3__122__compressed_pair_elemINS_22__unordered_map_hasherINS_12basic_stringIcNS_11char_traitsIcEENS_9allocatorIcEEEENS_17__hash_value_typeIS7_4TreeEENS_4hashIS7_EENS_8equal_toIS7_EELb1EEELi1ELb1EE5__getB7v160006Ev, symObjAddr: 0x4540, symBinAddr: 0x10001EA20, symSize: 0x10 }
  - { offsetInCU: 0xDCFD, offset: 0x506E2, size: 0x8, addend: 0x0, symName: __ZNKSt3__113__string_hashIcNS_9allocatorIcEEEclERKNS_12basic_stringIcNS_11char_traitsIcEES2_EE, symObjAddr: 0x4550, symBinAddr: 0x10001EA30, symSize: 0x70 }
  - { offsetInCU: 0xDD30, offset: 0x50715, size: 0x8, addend: 0x0, symName: __ZNSt3__121__murmur2_or_cityhashImLm64EEclEPKvm, symObjAddr: 0x4680, symBinAddr: 0x10001EAE0, symSize: 0x3D0 }
  - { offsetInCU: 0xDDC8, offset: 0x507AD, size: 0x8, addend: 0x0, symName: __ZNSt3__121__murmur2_or_cityhashImLm64EE18__hash_len_0_to_16EPKcm, symObjAddr: 0x4A50, symBinAddr: 0x10001EEB0, symSize: 0x180 }
  - { offsetInCU: 0xDEA3, offset: 0x50888, size: 0x8, addend: 0x0, symName: __ZNSt3__121__murmur2_or_cityhashImLm64EE19__hash_len_17_to_32EPKcm, symObjAddr: 0x4BD0, symBinAddr: 0x10001F030, symSize: 0x100 }
  - { offsetInCU: 0xDF0B, offset: 0x508F0, size: 0x8, addend: 0x0, symName: __ZNSt3__121__murmur2_or_cityhashImLm64EE19__hash_len_33_to_64EPKcm, symObjAddr: 0x4CD0, symBinAddr: 0x10001F130, symSize: 0x260 }
  - { offsetInCU: 0xDFBC, offset: 0x509A1, size: 0x8, addend: 0x0, symName: __ZNSt3__121__murmur2_or_cityhashImLm64EE13__hash_len_16Emm, symObjAddr: 0x4F50, symBinAddr: 0x10001F3B0, symSize: 0x90 }
  - { offsetInCU: 0xE016, offset: 0x509FB, size: 0x8, addend: 0x0, symName: __ZNSt3__121__murmur2_or_cityhashImLm64EE29__weak_hash_len_32_with_seedsEPKcmm, symObjAddr: 0x4FE0, symBinAddr: 0x10001F440, symSize: 0x90 }
  - { offsetInCU: 0xE054, offset: 0x50A39, size: 0x8, addend: 0x0, symName: __ZNSt3__121__murmur2_or_cityhashImLm64EE8__rotateEmi, symObjAddr: 0x5070, symBinAddr: 0x10001F4D0, symSize: 0x50 }
  - { offsetInCU: 0xE084, offset: 0x50A69, size: 0x8, addend: 0x0, symName: __ZNSt3__14pairImmEaSB7v160006ERKS1_, symObjAddr: 0x50C0, symBinAddr: 0x10001F520, symSize: 0x30 }
  - { offsetInCU: 0xE0B6, offset: 0x50A9B, size: 0x8, addend: 0x0, symName: __ZNSt3__121__murmur2_or_cityhashImLm64EE11__shift_mixEm, symObjAddr: 0x5130, symBinAddr: 0x10001F590, symSize: 0x20 }
  - { offsetInCU: 0xE0D8, offset: 0x50ABD, size: 0x8, addend: 0x0, symName: __ZNSt3__121__murmur2_or_cityhashImLm64EE22__rotate_by_at_least_1Emi, symObjAddr: 0x5150, symBinAddr: 0x10001F5B0, symSize: 0x30 }
  - { offsetInCU: 0xE108, offset: 0x50AED, size: 0x8, addend: 0x0, symName: __ZNSt3__121__murmur2_or_cityhashImLm64EE29__weak_hash_len_32_with_seedsEmmmmmm, symObjAddr: 0x51A0, symBinAddr: 0x10001F600, symSize: 0xD0 }
  - { offsetInCU: 0xE17F, offset: 0x50B64, size: 0x8, addend: 0x0, symName: __ZNSt3__14pairImmEC1B7v160006ERKmS3_, symObjAddr: 0x5270, symBinAddr: 0x10001F6D0, symSize: 0x30 }
  - { offsetInCU: 0xE1C3, offset: 0x50BA8, size: 0x8, addend: 0x0, symName: __ZNSt3__14pairImmEC2B7v160006ERKmS3_, symObjAddr: 0x52A0, symBinAddr: 0x10001F700, symSize: 0x30 }
  - { offsetInCU: 0xE207, offset: 0x50BEC, size: 0x8, addend: 0x0, symName: __ZNSt3__117__compressed_pairIfNS_21__unordered_map_equalINS_12basic_stringIcNS_11char_traitsIcEENS_9allocatorIcEEEENS_17__hash_value_typeIS7_4TreeEENS_8equal_toIS7_EENS_4hashIS7_EELb1EEEE6secondB7v160006Ev, symObjAddr: 0x5470, symBinAddr: 0x10001F730, symSize: 0x20 }
  - { offsetInCU: 0xE22B, offset: 0x50C10, size: 0x8, addend: 0x0, symName: __ZNSt3__122__compressed_pair_elemINS_21__unordered_map_equalINS_12basic_stringIcNS_11char_traitsIcEENS_9allocatorIcEEEENS_17__hash_value_typeIS7_4TreeEENS_8equal_toIS7_EENS_4hashIS7_EELb1EEELi1ELb1EE5__getB7v160006Ev, symObjAddr: 0x5490, symBinAddr: 0x10001F750, symSize: 0x10 }
  - { offsetInCU: 0xE24F, offset: 0x50C34, size: 0x8, addend: 0x0, symName: __ZNKSt3__18equal_toINS_12basic_stringIcNS_11char_traitsIcEENS_9allocatorIcEEEEEclB7v160006ERKS6_S9_, symObjAddr: 0x54A0, symBinAddr: 0x10001F760, symSize: 0x30 }
  - { offsetInCU: 0xE291, offset: 0x50C76, size: 0x8, addend: 0x0, symName: __ZNKSt3__117__hash_value_typeINS_12basic_stringIcNS_11char_traitsIcEENS_9allocatorIcEEEE4TreeE11__get_valueB7v160006Ev, symObjAddr: 0x54D0, symBinAddr: 0x10001F790, symSize: 0x10 }
  - { offsetInCU: 0xE2B5, offset: 0x50C9A, size: 0x8, addend: 0x0, symName: __ZNSt3__116allocator_traitsINS_9allocatorINS_11__hash_nodeINS_17__hash_value_typeINS_12basic_stringIcNS_11char_traitsIcEENS1_IcEEEE4TreeEEPvEEEEE8allocateB7v160006ERSD_m, symObjAddr: 0x5690, symBinAddr: 0x10001F7A0, symSize: 0x30 }
  - { offsetInCU: 0xE2E7, offset: 0x50CCC, size: 0x8, addend: 0x0, symName: __ZNSt3__122__hash_node_destructorINS_9allocatorINS_11__hash_nodeINS_17__hash_value_typeINS_12basic_stringIcNS_11char_traitsIcEENS1_IcEEEE4TreeEEPvEEEEEC1B7v160006ERSD_b, symObjAddr: 0x56C0, symBinAddr: 0x10001F7D0, symSize: 0x40 }
  - { offsetInCU: 0xE332, offset: 0x50D17, size: 0x8, addend: 0x0, symName: __ZNSt3__110unique_ptrINS_11__hash_nodeINS_17__hash_value_typeINS_12basic_stringIcNS_11char_traitsIcEENS_9allocatorIcEEEE4TreeEEPvEENS_22__hash_node_destructorINS6_ISC_EEEEEC1B7v160006ILb1EvEEPSC_NS_16__dependent_typeINS_27__unique_ptr_deleter_sfinaeISF_EEXT_EE20__good_rval_ref_typeE, symObjAddr: 0x5700, symBinAddr: 0x10001F810, symSize: 0x30 }
  - { offsetInCU: 0xE381, offset: 0x50D66, size: 0x8, addend: 0x0, symName: __ZNSt3__116allocator_traitsINS_9allocatorINS_11__hash_nodeINS_17__hash_value_typeINS_12basic_stringIcNS_11char_traitsIcEENS1_IcEEEE4TreeEEPvEEEEE9constructB7v160006INS_4pairIKS8_S9_EEJRKSI_EvEEvRSD_PT_DpOT0_, symObjAddr: 0x5730, symBinAddr: 0x10001F840, symSize: 0x30 }
  - { offsetInCU: 0xE3D7, offset: 0x50DBC, size: 0x8, addend: 0x0, symName: __ZNSt3__110unique_ptrINS_11__hash_nodeINS_17__hash_value_typeINS_12basic_stringIcNS_11char_traitsIcEENS_9allocatorIcEEEE4TreeEEPvEENS_22__hash_node_destructorINS6_ISC_EEEEE11get_deleterB7v160006Ev, symObjAddr: 0x5760, symBinAddr: 0x10001F870, symSize: 0x20 }
  - { offsetInCU: 0xE3FB, offset: 0x50DE0, size: 0x8, addend: 0x0, symName: __ZNSt3__19allocatorINS_11__hash_nodeINS_17__hash_value_typeINS_12basic_stringIcNS_11char_traitsIcEENS0_IcEEEE4TreeEEPvEEE8allocateB7v160006Em, symObjAddr: 0x5780, symBinAddr: 0x10001F890, symSize: 0x80 }
  - { offsetInCU: 0xE42D, offset: 0x50E12, size: 0x8, addend: 0x0, symName: __ZNSt3__116allocator_traitsINS_9allocatorINS_11__hash_nodeINS_17__hash_value_typeINS_12basic_stringIcNS_11char_traitsIcEENS1_IcEEEE4TreeEEPvEEEEE8max_sizeB7v160006ISD_vEEmRKSD_, symObjAddr: 0x5800, symBinAddr: 0x10001F910, symSize: 0x20 }
  - { offsetInCU: 0xE45A, offset: 0x50E3F, size: 0x8, addend: 0x0, symName: __ZNKSt3__19allocatorINS_11__hash_nodeINS_17__hash_value_typeINS_12basic_stringIcNS_11char_traitsIcEENS0_IcEEEE4TreeEEPvEEE8max_sizeB7v160006Ev, symObjAddr: 0x5820, symBinAddr: 0x10001F930, symSize: 0x20 }
  - { offsetInCU: 0xE47E, offset: 0x50E63, size: 0x8, addend: 0x0, symName: __ZNSt3__122__hash_node_destructorINS_9allocatorINS_11__hash_nodeINS_17__hash_value_typeINS_12basic_stringIcNS_11char_traitsIcEENS1_IcEEEE4TreeEEPvEEEEEC2B7v160006ERSD_b, symObjAddr: 0x5840, symBinAddr: 0x10001F950, symSize: 0x30 }
  - { offsetInCU: 0xE4C4, offset: 0x50EA9, size: 0x8, addend: 0x0, symName: __ZNSt3__110unique_ptrINS_11__hash_nodeINS_17__hash_value_typeINS_12basic_stringIcNS_11char_traitsIcEENS_9allocatorIcEEEE4TreeEEPvEENS_22__hash_node_destructorINS6_ISC_EEEEEC2B7v160006ILb1EvEEPSC_NS_16__dependent_typeINS_27__unique_ptr_deleter_sfinaeISF_EEXT_EE20__good_rval_ref_typeE, symObjAddr: 0x5870, symBinAddr: 0x10001F980, symSize: 0x50 }
  - { offsetInCU: 0xE513, offset: 0x50EF8, size: 0x8, addend: 0x0, symName: __ZNSt3__117__compressed_pairIPNS_11__hash_nodeINS_17__hash_value_typeINS_12basic_stringIcNS_11char_traitsIcEENS_9allocatorIcEEEE4TreeEEPvEENS_22__hash_node_destructorINS6_ISC_EEEEEC1B7v160006IRSD_SG_EEOT_OT0_, symObjAddr: 0x58C0, symBinAddr: 0x10001F9D0, symSize: 0x30 }
  - { offsetInCU: 0xE569, offset: 0x50F4E, size: 0x8, addend: 0x0, symName: __ZNSt3__117__compressed_pairIPNS_11__hash_nodeINS_17__hash_value_typeINS_12basic_stringIcNS_11char_traitsIcEENS_9allocatorIcEEEE4TreeEEPvEENS_22__hash_node_destructorINS6_ISC_EEEEEC2B7v160006IRSD_SG_EEOT_OT0_, symObjAddr: 0x58F0, symBinAddr: 0x10001FA00, symSize: 0x40 }
  - { offsetInCU: 0xE5BF, offset: 0x50FA4, size: 0x8, addend: 0x0, symName: __ZNSt3__122__compressed_pair_elemIPNS_11__hash_nodeINS_17__hash_value_typeINS_12basic_stringIcNS_11char_traitsIcEENS_9allocatorIcEEEE4TreeEEPvEELi0ELb0EEC2B7v160006IRSD_vEEOT_, symObjAddr: 0x5930, symBinAddr: 0x10001FA40, symSize: 0x20 }
  - { offsetInCU: 0xE5FF, offset: 0x50FE4, size: 0x8, addend: 0x0, symName: __ZNSt3__122__compressed_pair_elemINS_22__hash_node_destructorINS_9allocatorINS_11__hash_nodeINS_17__hash_value_typeINS_12basic_stringIcNS_11char_traitsIcEENS2_IcEEEE4TreeEEPvEEEEEELi1ELb0EEC2B7v160006ISF_vEEOT_, symObjAddr: 0x5950, symBinAddr: 0x10001FA60, symSize: 0x30 }
  - { offsetInCU: 0xE63F, offset: 0x51024, size: 0x8, addend: 0x0, symName: __ZNSt3__19allocatorINS_11__hash_nodeINS_17__hash_value_typeINS_12basic_stringIcNS_11char_traitsIcEENS0_IcEEEE4TreeEEPvEEE9constructB7v160006INS_4pairIKS7_S8_EEJRKSG_EEEvPT_DpOT0_, symObjAddr: 0x5980, symBinAddr: 0x10001FA90, symSize: 0x30 }
  - { offsetInCU: 0xE693, offset: 0x51078, size: 0x8, addend: 0x0, symName: __ZNSt3__14pairIKNS_12basic_stringIcNS_11char_traitsIcEENS_9allocatorIcEEEE4TreeEC1ERKS9_, symObjAddr: 0x59B0, symBinAddr: 0x10001FAC0, symSize: 0x30 }
  - { offsetInCU: 0xE6C6, offset: 0x510AB, size: 0x8, addend: 0x0, symName: __ZNSt3__14pairIKNS_12basic_stringIcNS_11char_traitsIcEENS_9allocatorIcEEEE4TreeEC2ERKS9_, symObjAddr: 0x59E0, symBinAddr: 0x10001FAF0, symSize: 0x80 }
  - { offsetInCU: 0xE6F9, offset: 0x510DE, size: 0x8, addend: 0x0, symName: __ZNSt3__117__compressed_pairIPNS_11__hash_nodeINS_17__hash_value_typeINS_12basic_stringIcNS_11char_traitsIcEENS_9allocatorIcEEEE4TreeEEPvEENS_22__hash_node_destructorINS6_ISC_EEEEE6secondB7v160006Ev, symObjAddr: 0x5A60, symBinAddr: 0x10001FB70, symSize: 0x20 }
  - { offsetInCU: 0xE71D, offset: 0x51102, size: 0x8, addend: 0x0, symName: __ZNSt3__122__compressed_pair_elemINS_22__hash_node_destructorINS_9allocatorINS_11__hash_nodeINS_17__hash_value_typeINS_12basic_stringIcNS_11char_traitsIcEENS2_IcEEEE4TreeEEPvEEEEEELi1ELb0EE5__getB7v160006Ev, symObjAddr: 0x5A80, symBinAddr: 0x10001FB90, symSize: 0x10 }
  - { offsetInCU: 0xE741, offset: 0x51126, size: 0x8, addend: 0x0, symName: __ZNKSt3__117__compressed_pairIPNS_11__hash_nodeINS_17__hash_value_typeINS_12basic_stringIcNS_11char_traitsIcEENS_9allocatorIcEEEE4TreeEEPvEENS_22__hash_node_destructorINS6_ISC_EEEEE5firstB7v160006Ev, symObjAddr: 0x5A90, symBinAddr: 0x10001FBA0, symSize: 0x20 }
  - { offsetInCU: 0xE765, offset: 0x5114A, size: 0x8, addend: 0x0, symName: __ZNKSt3__122__compressed_pair_elemIPNS_11__hash_nodeINS_17__hash_value_typeINS_12basic_stringIcNS_11char_traitsIcEENS_9allocatorIcEEEE4TreeEEPvEELi0ELb0EE5__getB7v160006Ev, symObjAddr: 0x5AB0, symBinAddr: 0x10001FBC0, symSize: 0x10 }
  - { offsetInCU: 0xE789, offset: 0x5116E, size: 0x8, addend: 0x0, symName: __ZNSt3__117__compressed_pairIPNS_11__hash_nodeINS_17__hash_value_typeINS_12basic_stringIcNS_11char_traitsIcEENS_9allocatorIcEEEE4TreeEEPvEENS_22__hash_node_destructorINS6_ISC_EEEEE5firstB7v160006Ev, symObjAddr: 0x5AC0, symBinAddr: 0x10001FBD0, symSize: 0x20 }
  - { offsetInCU: 0xE7AD, offset: 0x51192, size: 0x8, addend: 0x0, symName: __ZNSt3__122__compressed_pair_elemIPNS_11__hash_nodeINS_17__hash_value_typeINS_12basic_stringIcNS_11char_traitsIcEENS_9allocatorIcEEEE4TreeEEPvEELi0ELb0EE5__getB7v160006Ev, symObjAddr: 0x5AE0, symBinAddr: 0x10001FBF0, symSize: 0x10 }
  - { offsetInCU: 0xE7D1, offset: 0x511B6, size: 0x8, addend: 0x0, symName: __ZNSt3__110unique_ptrINS_11__hash_nodeINS_17__hash_value_typeINS_12basic_stringIcNS_11char_traitsIcEENS_9allocatorIcEEEE4TreeEEPvEENS_22__hash_node_destructorINS6_ISC_EEEEED2B7v160006Ev, symObjAddr: 0x5AF0, symBinAddr: 0x10001FC00, symSize: 0x20 }
  - { offsetInCU: 0xE7F9, offset: 0x511DE, size: 0x8, addend: 0x0, symName: __ZNSt3__110unique_ptrINS_11__hash_nodeINS_17__hash_value_typeINS_12basic_stringIcNS_11char_traitsIcEENS_9allocatorIcEEEE4TreeEEPvEENS_22__hash_node_destructorINS6_ISC_EEEEE5resetB7v160006EPSC_, symObjAddr: 0x5B10, symBinAddr: 0x10001FC20, symSize: 0x70 }
  - { offsetInCU: 0xE83B, offset: 0x51220, size: 0x8, addend: 0x0, symName: __ZNSt3__122__hash_node_destructorINS_9allocatorINS_11__hash_nodeINS_17__hash_value_typeINS_12basic_stringIcNS_11char_traitsIcEENS1_IcEEEE4TreeEEPvEEEEEclB7v160006EPSC_, symObjAddr: 0x5B80, symBinAddr: 0x10001FC90, symSize: 0xA0 }
  - { offsetInCU: 0xE86E, offset: 0x51253, size: 0x8, addend: 0x0, symName: __ZNSt3__115__hash_iteratorIPNS_11__hash_nodeINS_17__hash_value_typeINS_12basic_stringIcNS_11char_traitsIcEENS_9allocatorIcEEEE4TreeEEPvEEEC2B7v160006EPNS_16__hash_node_baseISD_EEPKv, symObjAddr: 0x5C20, symBinAddr: 0x10001FD30, symSize: 0x20 }
  - { offsetInCU: 0xE8B4, offset: 0x51299, size: 0x8, addend: 0x0, symName: __ZNSt3__14pairINS_15__hash_iteratorIPNS_11__hash_nodeINS_17__hash_value_typeINS_12basic_stringIcNS_11char_traitsIcEENS_9allocatorIcEEEE4TreeEEPvEEEEbEC2B7v160006ERKSF_RKb, symObjAddr: 0x5C40, symBinAddr: 0x10001FD50, symSize: 0x30 }
  - { offsetInCU: 0xE8F8, offset: 0x512DD, size: 0x8, addend: 0x0, symName: __ZNKSt3__121__hash_const_iteratorIPNS_11__hash_nodeINS_17__hash_value_typeINS_12basic_stringIcNS_11char_traitsIcEENS_9allocatorIcEEEE4TreeEEPvEEEptB7v160006Ev, symObjAddr: 0x5C70, symBinAddr: 0x10001FD80, symSize: 0x30 }
  - { offsetInCU: 0xE91C, offset: 0x51301, size: 0x8, addend: 0x0, symName: __ZNSt3__114pointer_traitsIPKNS_17__hash_value_typeINS_12basic_stringIcNS_11char_traitsIcEENS_9allocatorIcEEEE4TreeEEE10pointer_toB7v160006ERSA_, symObjAddr: 0x5CA0, symBinAddr: 0x10001FDB0, symSize: 0x10 }
  - { offsetInCU: 0xE93E, offset: 0x51323, size: 0x8, addend: 0x0, symName: __ZNSt3__121__hash_const_iteratorIPNS_11__hash_nodeINS_17__hash_value_typeINS_12basic_stringIcNS_11char_traitsIcEENS_9allocatorIcEEEE4TreeEEPvEEEppB7v160006Ev, symObjAddr: 0x5CB0, symBinAddr: 0x10001FDC0, symSize: 0x20 }
  - { offsetInCU: 0xE961, offset: 0x51346, size: 0x8, addend: 0x0, symName: __ZNKSt3__112__hash_tableINS_17__hash_value_typeINS_12basic_stringIcNS_11char_traitsIcEENS_9allocatorIcEEEE4TreeEENS_22__unordered_map_hasherIS7_S9_NS_4hashIS7_EENS_8equal_toIS7_EELb1EEENS_21__unordered_map_equalIS7_S9_SE_SC_Lb1EEENS5_IS9_EEE5beginEv, symObjAddr: 0x5CD0, symBinAddr: 0x10001FDE0, symSize: 0x40 }
  - { offsetInCU: 0xE989, offset: 0x5136E, size: 0x8, addend: 0x0, symName: __ZNSt3__125__hash_map_const_iteratorINS_21__hash_const_iteratorIPNS_11__hash_nodeINS_17__hash_value_typeINS_12basic_stringIcNS_11char_traitsIcEENS_9allocatorIcEEEE4TreeEEPvEEEEEC1B7v160006ESF_, symObjAddr: 0x5D10, symBinAddr: 0x10001FE20, symSize: 0x30 }
  - { offsetInCU: 0xE9C0, offset: 0x513A5, size: 0x8, addend: 0x0, symName: __ZNKSt3__117__compressed_pairINS_16__hash_node_baseIPNS_11__hash_nodeINS_17__hash_value_typeINS_12basic_stringIcNS_11char_traitsIcEENS_9allocatorIcEEEE4TreeEEPvEEEENS7_ISD_EEE5firstB7v160006Ev, symObjAddr: 0x5D40, symBinAddr: 0x10001FE50, symSize: 0x20 }
  - { offsetInCU: 0xE9E4, offset: 0x513C9, size: 0x8, addend: 0x0, symName: __ZNSt3__121__hash_const_iteratorIPNS_11__hash_nodeINS_17__hash_value_typeINS_12basic_stringIcNS_11char_traitsIcEENS_9allocatorIcEEEE4TreeEEPvEEEC1B7v160006EPNS_16__hash_node_baseISD_EEPKv, symObjAddr: 0x5D60, symBinAddr: 0x10001FE70, symSize: 0x30 }
  - { offsetInCU: 0xEA2A, offset: 0x5140F, size: 0x8, addend: 0x0, symName: __ZNKSt3__122__compressed_pair_elemINS_16__hash_node_baseIPNS_11__hash_nodeINS_17__hash_value_typeINS_12basic_stringIcNS_11char_traitsIcEENS_9allocatorIcEEEE4TreeEEPvEEEELi0ELb0EE5__getB7v160006Ev, symObjAddr: 0x5D90, symBinAddr: 0x10001FEA0, symSize: 0x10 }
  - { offsetInCU: 0xEA4E, offset: 0x51433, size: 0x8, addend: 0x0, symName: __ZNSt3__121__hash_const_iteratorIPNS_11__hash_nodeINS_17__hash_value_typeINS_12basic_stringIcNS_11char_traitsIcEENS_9allocatorIcEEEE4TreeEEPvEEEC2B7v160006EPNS_16__hash_node_baseISD_EEPKv, symObjAddr: 0x5DA0, symBinAddr: 0x10001FEB0, symSize: 0x20 }
  - { offsetInCU: 0xEA94, offset: 0x51479, size: 0x8, addend: 0x0, symName: __ZNSt3__125__hash_map_const_iteratorINS_21__hash_const_iteratorIPNS_11__hash_nodeINS_17__hash_value_typeINS_12basic_stringIcNS_11char_traitsIcEENS_9allocatorIcEEEE4TreeEEPvEEEEEC2B7v160006ESF_, symObjAddr: 0x5DC0, symBinAddr: 0x10001FED0, symSize: 0x20 }
  - { offsetInCU: 0xEACA, offset: 0x514AF, size: 0x8, addend: 0x0, symName: __ZNKSt3__112__hash_tableINS_17__hash_value_typeINS_12basic_stringIcNS_11char_traitsIcEENS_9allocatorIcEEEE4TreeEENS_22__unordered_map_hasherIS7_S9_NS_4hashIS7_EENS_8equal_toIS7_EELb1EEENS_21__unordered_map_equalIS7_S9_SE_SC_Lb1EEENS5_IS9_EEE3endEv, symObjAddr: 0x5DE0, symBinAddr: 0x10001FEF0, symSize: 0x30 }
  - { offsetInCU: 0xEAF7, offset: 0x514DC, size: 0x8, addend: 0x0, symName: __ZNSt3__119__to_address_helperINS_16reverse_iteratorIPNS_13unordered_mapINS_12basic_stringIcNS_11char_traitsIcEENS_9allocatorIcEEEE4TreeNS_4hashIS8_EENS_8equal_toIS8_EENS6_INS_4pairIKS8_S9_EEEEEEEEvE6__callB7v160006ERKSK_, symObjAddr: 0x5E10, symBinAddr: 0x10001FF20, symSize: 0x50 }
  - { offsetInCU: 0xEB19, offset: 0x514FE, size: 0x8, addend: 0x0, symName: __ZNKSt3__116reverse_iteratorIPNS_13unordered_mapINS_12basic_stringIcNS_11char_traitsIcEENS_9allocatorIcEEEE4TreeNS_4hashIS7_EENS_8equal_toIS7_EENS5_INS_4pairIKS7_S8_EEEEEEEptB7v160006Ev, symObjAddr: 0x5E60, symBinAddr: 0x10001FF70, symSize: 0x20 }
  - { offsetInCU: 0xEB3D, offset: 0x51522, size: 0x8, addend: 0x0, symName: __ZNSt3__128__exception_guard_exceptionsINS_29_AllocatorDestroyRangeReverseINS_9allocatorINS_13unordered_mapINS_12basic_stringIcNS_11char_traitsIcEENS2_IcEEEE4TreeNS_4hashIS8_EENS_8equal_toIS8_EENS2_INS_4pairIKS8_S9_EEEEEEEENS_16reverse_iteratorIPSI_EEEEED2B7v160006Ev, symObjAddr: 0x5E80, symBinAddr: 0x10001FF90, symSize: 0x30 }
  - { offsetInCU: 0xEB65, offset: 0x5154A, size: 0x8, addend: 0x0, symName: __ZNKSt3__129_AllocatorDestroyRangeReverseINS_9allocatorINS_13unordered_mapINS_12basic_stringIcNS_11char_traitsIcEENS1_IcEEEE4TreeNS_4hashIS7_EENS_8equal_toIS7_EENS1_INS_4pairIKS7_S8_EEEEEEEENS_16reverse_iteratorIPSH_EEEclB7v160006Ev, symObjAddr: 0x5EB0, symBinAddr: 0x10001FFC0, symSize: 0xF0 }
  - { offsetInCU: 0xEB8A, offset: 0x5156F, size: 0x8, addend: 0x0, symName: __ZNSt3__116reverse_iteratorINS0_IPNS_13unordered_mapINS_12basic_stringIcNS_11char_traitsIcEENS_9allocatorIcEEEE4TreeNS_4hashIS7_EENS_8equal_toIS7_EENS5_INS_4pairIKS7_S8_EEEEEEEEEC1B7v160006ESJ_, symObjAddr: 0x6010, symBinAddr: 0x100020120, symSize: 0x30 }
  - { offsetInCU: 0xEBC0, offset: 0x515A5, size: 0x8, addend: 0x0, symName: __ZNSt3__116reverse_iteratorINS0_IPNS_13unordered_mapINS_12basic_stringIcNS_11char_traitsIcEENS_9allocatorIcEEEE4TreeNS_4hashIS7_EENS_8equal_toIS7_EENS5_INS_4pairIKS7_S8_EEEEEEEEEppB7v160006Ev, symObjAddr: 0x60E0, symBinAddr: 0x1000201C0, symSize: 0x30 }
  - { offsetInCU: 0xEBE4, offset: 0x515C9, size: 0x8, addend: 0x0, symName: __ZNKSt3__116reverse_iteratorINS0_IPNS_13unordered_mapINS_12basic_stringIcNS_11char_traitsIcEENS_9allocatorIcEEEE4TreeNS_4hashIS7_EENS_8equal_toIS7_EENS5_INS_4pairIKS7_S8_EEEEEEEEE4baseB7v160006Ev, symObjAddr: 0x6110, symBinAddr: 0x1000201F0, symSize: 0x20 }
  - { offsetInCU: 0xEC0D, offset: 0x515F2, size: 0x8, addend: 0x0, symName: __ZNSt3__119__to_address_helperINS_16reverse_iteratorINS1_IPNS_13unordered_mapINS_12basic_stringIcNS_11char_traitsIcEENS_9allocatorIcEEEE4TreeNS_4hashIS8_EENS_8equal_toIS8_EENS6_INS_4pairIKS8_S9_EEEEEEEEEEvE6__callB7v160006ERKSL_, symObjAddr: 0x6190, symBinAddr: 0x100020210, symSize: 0x50 }
  - { offsetInCU: 0xEC2F, offset: 0x51614, size: 0x8, addend: 0x0, symName: __ZNKSt3__116reverse_iteratorINS0_IPNS_13unordered_mapINS_12basic_stringIcNS_11char_traitsIcEENS_9allocatorIcEEEE4TreeNS_4hashIS7_EENS_8equal_toIS7_EENS5_INS_4pairIKS7_S8_EEEEEEEEEptB7v160006Ev, symObjAddr: 0x61E0, symBinAddr: 0x100020260, symSize: 0x20 }
  - { offsetInCU: 0xEC53, offset: 0x51638, size: 0x8, addend: 0x0, symName: __ZNKSt3__116reverse_iteratorINS0_IPNS_13unordered_mapINS_12basic_stringIcNS_11char_traitsIcEENS_9allocatorIcEEEE4TreeNS_4hashIS7_EENS_8equal_toIS7_EENS5_INS_4pairIKS7_S8_EEEEEEEEEdeB7v160006Ev, symObjAddr: 0x6200, symBinAddr: 0x100020280, symSize: 0x40 }
  - { offsetInCU: 0xEC85, offset: 0x5166A, size: 0x8, addend: 0x0, symName: __ZNSt3__116reverse_iteratorIPNS_13unordered_mapINS_12basic_stringIcNS_11char_traitsIcEENS_9allocatorIcEEEE4TreeNS_4hashIS7_EENS_8equal_toIS7_EENS5_INS_4pairIKS7_S8_EEEEEEEmmB7v160006Ev, symObjAddr: 0x6240, symBinAddr: 0x1000202C0, symSize: 0x20 }
  - { offsetInCU: 0xECA9, offset: 0x5168E, size: 0x8, addend: 0x0, symName: __ZNSt3__116reverse_iteratorINS0_IPNS_13unordered_mapINS_12basic_stringIcNS_11char_traitsIcEENS_9allocatorIcEEEE4TreeNS_4hashIS7_EENS_8equal_toIS7_EENS5_INS_4pairIKS7_S8_EEEEEEEEEC2B7v160006ESJ_, symObjAddr: 0x6260, symBinAddr: 0x1000202E0, symSize: 0x40 }
  - { offsetInCU: 0xECDF, offset: 0x516C4, size: 0x8, addend: 0x0, symName: __ZNSt3__116reverse_iteratorIPNS_13unordered_mapINS_12basic_stringIcNS_11char_traitsIcEENS_9allocatorIcEEEE4TreeNS_4hashIS7_EENS_8equal_toIS7_EENS5_INS_4pairIKS7_S8_EEEEEEEC2B7v160006ESI_, symObjAddr: 0x62A0, symBinAddr: 0x100020320, symSize: 0x30 }
  - { offsetInCU: 0xED15, offset: 0x516FA, size: 0x8, addend: 0x0, symName: __ZNSt3__114__split_bufferINS_13unordered_mapINS_12basic_stringIcNS_11char_traitsIcEENS_9allocatorIcEEEE4TreeNS_4hashIS7_EENS_8equal_toIS7_EENS5_INS_4pairIKS7_S8_EEEEEERNS5_ISH_EEED2Ev, symObjAddr: 0x62D0, symBinAddr: 0x100020350, symSize: 0x60 }
  - { offsetInCU: 0xED40, offset: 0x51725, size: 0x8, addend: 0x0, symName: __ZNSt3__114__split_bufferINS_13unordered_mapINS_12basic_stringIcNS_11char_traitsIcEENS_9allocatorIcEEEE4TreeNS_4hashIS7_EENS_8equal_toIS7_EENS5_INS_4pairIKS7_S8_EEEEEERNS5_ISH_EEE5clearB7v160006Ev, symObjAddr: 0x6330, symBinAddr: 0x1000203B0, symSize: 0x20 }
  - { offsetInCU: 0xED64, offset: 0x51749, size: 0x8, addend: 0x0, symName: __ZNKSt3__114__split_bufferINS_13unordered_mapINS_12basic_stringIcNS_11char_traitsIcEENS_9allocatorIcEEEE4TreeNS_4hashIS7_EENS_8equal_toIS7_EENS5_INS_4pairIKS7_S8_EEEEEERNS5_ISH_EEE8capacityB7v160006Ev, symObjAddr: 0x6380, symBinAddr: 0x1000203D0, symSize: 0x40 }
  - { offsetInCU: 0xED88, offset: 0x5176D, size: 0x8, addend: 0x0, symName: __ZNSt3__114__split_bufferINS_13unordered_mapINS_12basic_stringIcNS_11char_traitsIcEENS_9allocatorIcEEEE4TreeNS_4hashIS7_EENS_8equal_toIS7_EENS5_INS_4pairIKS7_S8_EEEEEERNS5_ISH_EEE17__destruct_at_endB7v160006EPSH_, symObjAddr: 0x63C0, symBinAddr: 0x100020410, symSize: 0x30 }
  - { offsetInCU: 0xEDB9, offset: 0x5179E, size: 0x8, addend: 0x0, symName: __ZNSt3__114__split_bufferINS_13unordered_mapINS_12basic_stringIcNS_11char_traitsIcEENS_9allocatorIcEEEE4TreeNS_4hashIS7_EENS_8equal_toIS7_EENS5_INS_4pairIKS7_S8_EEEEEERNS5_ISH_EEE17__destruct_at_endB7v160006EPSH_NS_17integral_constantIbLb0EEE, symObjAddr: 0x63F0, symBinAddr: 0x100020440, symSize: 0x80 }
  - { offsetInCU: 0xEDFA, offset: 0x517DF, size: 0x8, addend: 0x0, symName: __ZNKSt3__114__split_bufferINS_13unordered_mapINS_12basic_stringIcNS_11char_traitsIcEENS_9allocatorIcEEEE4TreeNS_4hashIS7_EENS_8equal_toIS7_EENS5_INS_4pairIKS7_S8_EEEEEERNS5_ISH_EEE9__end_capB7v160006Ev, symObjAddr: 0x64F0, symBinAddr: 0x1000204C0, symSize: 0x20 }
  - { offsetInCU: 0xEE1E, offset: 0x51803, size: 0x8, addend: 0x0, symName: __ZNKSt3__117__compressed_pairIPNS_13unordered_mapINS_12basic_stringIcNS_11char_traitsIcEENS_9allocatorIcEEEE4TreeNS_4hashIS7_EENS_8equal_toIS7_EENS5_INS_4pairIKS7_S8_EEEEEERNS5_ISH_EEE5firstB7v160006Ev, symObjAddr: 0x6510, symBinAddr: 0x1000204E0, symSize: 0x20 }
  - { offsetInCU: 0xEE42, offset: 0x51827, size: 0x8, addend: 0x0, symName: __ZNSt3__16vectorINS_13unordered_mapINS_12basic_stringIcNS_11char_traitsIcEENS_9allocatorIcEEEE4TreeNS_4hashIS7_EENS_8equal_toIS7_EENS5_INS_4pairIKS7_S8_EEEEEENS5_ISH_EEE17__destruct_at_endB7v160006EPSH_, symObjAddr: 0x6530, symBinAddr: 0x100020500, symSize: 0x80 }
  - { offsetInCU: 0xEE83, offset: 0x51868, size: 0x8, addend: 0x0, symName: __ZNSt3__16vectorINS_13unordered_mapINS_12basic_stringIcNS_11char_traitsIcEENS_9allocatorIcEEEE4TreeNS_4hashIS7_EENS_8equal_toIS7_EENS5_INS_4pairIKS7_S8_EEEEEENS5_ISH_EEE27__invalidate_iterators_pastB7v160006EPSH_, symObjAddr: 0x65B0, symBinAddr: 0x100020580, symSize: 0x10 }
  - { offsetInCU: 0xEEBA, offset: 0x5189F, size: 0x8, addend: 0x0, symName: __ZNKSt3__16vectorINS_13unordered_mapINS_12basic_stringIcNS_11char_traitsIcEENS_9allocatorIcEEEE4TreeNS_4hashIS7_EENS_8equal_toIS7_EENS5_INS_4pairIKS7_S8_EEEEEENS5_ISH_EEE17__annotate_shrinkB7v160006Em, symObjAddr: 0x6650, symBinAddr: 0x100020590, symSize: 0xA0 }
  - { offsetInCU: 0xEEEC, offset: 0x518D1, size: 0x8, addend: 0x0, symName: __ZNSt3__112__hash_tableINS_17__hash_value_typeINS_12basic_stringIcNS_11char_traitsIcEENS_9allocatorIcEEEE4TreeEENS_22__unordered_map_hasherIS7_S9_NS_4hashIS7_EENS_8equal_toIS7_EELb1EEENS_21__unordered_map_equalIS7_S9_SE_SC_Lb1EEENS5_IS9_EEE4findIS7_EENS_15__hash_iteratorIPNS_11__hash_nodeIS9_PvEEEERKT_, symObjAddr: 0x66F0, symBinAddr: 0x100020630, symSize: 0x180 }
  - { offsetInCU: 0xEF77, offset: 0x5195C, size: 0x8, addend: 0x0, symName: __ZNSt3__119__hash_map_iteratorINS_15__hash_iteratorIPNS_11__hash_nodeINS_17__hash_value_typeINS_12basic_stringIcNS_11char_traitsIcEENS_9allocatorIcEEEE4TreeEEPvEEEEEC1B7v160006ESF_, symObjAddr: 0x6870, symBinAddr: 0x1000207B0, symSize: 0x30 }
  - { offsetInCU: 0xEFAD, offset: 0x51992, size: 0x8, addend: 0x0, symName: __ZNSt3__112__hash_tableINS_17__hash_value_typeINS_12basic_stringIcNS_11char_traitsIcEENS_9allocatorIcEEEE4TreeEENS_22__unordered_map_hasherIS7_S9_NS_4hashIS7_EENS_8equal_toIS7_EELb1EEENS_21__unordered_map_equalIS7_S9_SE_SC_Lb1EEENS5_IS9_EEE3endEv, symObjAddr: 0x68A0, symBinAddr: 0x1000207E0, symSize: 0x30 }
  - { offsetInCU: 0xEFD5, offset: 0x519BA, size: 0x8, addend: 0x0, symName: __ZNSt3__119__hash_map_iteratorINS_15__hash_iteratorIPNS_11__hash_nodeINS_17__hash_value_typeINS_12basic_stringIcNS_11char_traitsIcEENS_9allocatorIcEEEE4TreeEEPvEEEEEC2B7v160006ESF_, symObjAddr: 0x68D0, symBinAddr: 0x100020810, symSize: 0x20 }
  - { offsetInCU: 0xF00C, offset: 0x519F1, size: 0x8, addend: 0x0, symName: __ZNKSt3__119__hash_map_iteratorINS_15__hash_iteratorIPNS_11__hash_nodeINS_17__hash_value_typeINS_12basic_stringIcNS_11char_traitsIcEENS_9allocatorIcEEEE4TreeEEPvEEEEEptB7v160006Ev, symObjAddr: 0x78C0, symBinAddr: 0x100020890, symSize: 0x30 }
  - { offsetInCU: 0xF02F, offset: 0x51A14, size: 0x8, addend: 0x0, symName: __ZNSt3__113unordered_mapINS_12basic_stringIcNS_11char_traitsIcEENS_9allocatorIcEEEE4TreeNS_4hashIS6_EENS_8equal_toIS6_EENS4_INS_4pairIKS6_S7_EEEEE25__construct_node_with_keyERSD_, symObjAddr: 0x78F0, symBinAddr: 0x1000208C0, symSize: 0x140 }
  - { offsetInCU: 0xF084, offset: 0x51A69, size: 0x8, addend: 0x0, symName: __ZNSt3__112__hash_tableINS_17__hash_value_typeINS_12basic_stringIcNS_11char_traitsIcEENS_9allocatorIcEEEE4TreeEENS_22__unordered_map_hasherIS7_S9_NS_4hashIS7_EENS_8equal_toIS7_EELb1EEENS_21__unordered_map_equalIS7_S9_SE_SC_Lb1EEENS5_IS9_EEE20__node_insert_uniqueEPNS_11__hash_nodeIS9_PvEE, symObjAddr: 0x7A30, symBinAddr: 0x100020A00, symSize: 0xC0 }
  - { offsetInCU: 0xF0D9, offset: 0x51ABE, size: 0x8, addend: 0x0, symName: __ZNKSt3__110unique_ptrINS_11__hash_nodeINS_17__hash_value_typeINS_12basic_stringIcNS_11char_traitsIcEENS_9allocatorIcEEEE4TreeEEPvEENS_26__hash_map_node_destructorINS6_ISC_EEEEE3getB7v160006Ev, symObjAddr: 0x7AF0, symBinAddr: 0x100020AC0, symSize: 0x20 }
  - { offsetInCU: 0xF0FD, offset: 0x51AE2, size: 0x8, addend: 0x0, symName: __ZNSt3__14pairINS_19__hash_map_iteratorINS_15__hash_iteratorIPNS_11__hash_nodeINS_17__hash_value_typeINS_12basic_stringIcNS_11char_traitsIcEENS_9allocatorIcEEEE4TreeEEPvEEEEEEbEC1B7v160006ISG_bEERKNS0_IT_T0_EE, symObjAddr: 0x7B10, symBinAddr: 0x100020AE0, symSize: 0x30 }
  - { offsetInCU: 0xF145, offset: 0x51B2A, size: 0x8, addend: 0x0, symName: __ZNSt3__110unique_ptrINS_11__hash_nodeINS_17__hash_value_typeINS_12basic_stringIcNS_11char_traitsIcEENS_9allocatorIcEEEE4TreeEEPvEENS_26__hash_map_node_destructorINS6_ISC_EEEEE7releaseB7v160006Ev, symObjAddr: 0x7B40, symBinAddr: 0x100020B10, symSize: 0x40 }
  - { offsetInCU: 0xF178, offset: 0x51B5D, size: 0x8, addend: 0x0, symName: __ZNSt3__110unique_ptrINS_11__hash_nodeINS_17__hash_value_typeINS_12basic_stringIcNS_11char_traitsIcEENS_9allocatorIcEEEE4TreeEEPvEENS_26__hash_map_node_destructorINS6_ISC_EEEEED1B7v160006Ev, symObjAddr: 0x7B80, symBinAddr: 0x100020B50, symSize: 0x20 }
  - { offsetInCU: 0xF1A0, offset: 0x51B85, size: 0x8, addend: 0x0, symName: __ZNSt3__114pointer_traitsIPNS_4pairIKNS_12basic_stringIcNS_11char_traitsIcEENS_9allocatorIcEEEE4TreeEEE10pointer_toB7v160006ERSA_, symObjAddr: 0x7BA0, symBinAddr: 0x100020B70, symSize: 0x10 }
  - { offsetInCU: 0xF1C2, offset: 0x51BA7, size: 0x8, addend: 0x0, symName: __ZNKSt3__115__hash_iteratorIPNS_11__hash_nodeINS_17__hash_value_typeINS_12basic_stringIcNS_11char_traitsIcEENS_9allocatorIcEEEE4TreeEEPvEEEptB7v160006Ev, symObjAddr: 0x7BB0, symBinAddr: 0x100020B80, symSize: 0x30 }
  - { offsetInCU: 0xF1E6, offset: 0x51BCB, size: 0x8, addend: 0x0, symName: __ZNSt3__114pointer_traitsIPNS_17__hash_value_typeINS_12basic_stringIcNS_11char_traitsIcEENS_9allocatorIcEEEE4TreeEEE10pointer_toB7v160006ERS9_, symObjAddr: 0x7BE0, symBinAddr: 0x100020BB0, symSize: 0x10 }
  - { offsetInCU: 0xF208, offset: 0x51BED, size: 0x8, addend: 0x0, symName: __ZNSt3__126__hash_map_node_destructorINS_9allocatorINS_11__hash_nodeINS_17__hash_value_typeINS_12basic_stringIcNS_11char_traitsIcEENS1_IcEEEE4TreeEEPvEEEEEC1B7v160006ERSD_, symObjAddr: 0x7BF0, symBinAddr: 0x100020BC0, symSize: 0x30 }
  - { offsetInCU: 0xF244, offset: 0x51C29, size: 0x8, addend: 0x0, symName: __ZNSt3__110unique_ptrINS_11__hash_nodeINS_17__hash_value_typeINS_12basic_stringIcNS_11char_traitsIcEENS_9allocatorIcEEEE4TreeEEPvEENS_26__hash_map_node_destructorINS6_ISC_EEEEEC1B7v160006ILb1EvEEPSC_NS_16__dependent_typeINS_27__unique_ptr_deleter_sfinaeISF_EEXT_EE20__good_rval_ref_typeE, symObjAddr: 0x7C20, symBinAddr: 0x100020BF0, symSize: 0x30 }
  - { offsetInCU: 0xF298, offset: 0x51C7D, size: 0x8, addend: 0x0, symName: __ZNSt3__116allocator_traitsINS_9allocatorINS_11__hash_nodeINS_17__hash_value_typeINS_12basic_stringIcNS_11char_traitsIcEENS1_IcEEEE4TreeEEPvEEEEE9constructB7v160006IKS8_JRSG_EvEEvRSD_PT_DpOT0_, symObjAddr: 0x7C50, symBinAddr: 0x100020C20, symSize: 0x30 }
  - { offsetInCU: 0xF2EE, offset: 0x51CD3, size: 0x8, addend: 0x0, symName: __ZNKSt3__110unique_ptrINS_11__hash_nodeINS_17__hash_value_typeINS_12basic_stringIcNS_11char_traitsIcEENS_9allocatorIcEEEE4TreeEEPvEENS_26__hash_map_node_destructorINS6_ISC_EEEEEptB7v160006Ev, symObjAddr: 0x7C80, symBinAddr: 0x100020C50, symSize: 0x20 }
  - { offsetInCU: 0xF312, offset: 0x51CF7, size: 0x8, addend: 0x0, symName: __ZNSt3__110unique_ptrINS_11__hash_nodeINS_17__hash_value_typeINS_12basic_stringIcNS_11char_traitsIcEENS_9allocatorIcEEEE4TreeEEPvEENS_26__hash_map_node_destructorINS6_ISC_EEEEE11get_deleterB7v160006Ev, symObjAddr: 0x7CA0, symBinAddr: 0x100020C70, symSize: 0x20 }
  - { offsetInCU: 0xF336, offset: 0x51D1B, size: 0x8, addend: 0x0, symName: __ZNSt3__116allocator_traitsINS_9allocatorINS_11__hash_nodeINS_17__hash_value_typeINS_12basic_stringIcNS_11char_traitsIcEENS1_IcEEEE4TreeEEPvEEEEE9constructB7v160006IS9_JEvEEvRSD_PT_DpOT0_, symObjAddr: 0x7CC0, symBinAddr: 0x100020C90, symSize: 0x30 }
  - { offsetInCU: 0xF377, offset: 0x51D5C, size: 0x8, addend: 0x0, symName: __ZNSt3__126__hash_map_node_destructorINS_9allocatorINS_11__hash_nodeINS_17__hash_value_typeINS_12basic_stringIcNS_11char_traitsIcEENS1_IcEEEE4TreeEEPvEEEEEC2B7v160006ERSD_, symObjAddr: 0x7CF0, symBinAddr: 0x100020CC0, symSize: 0x30 }
  - { offsetInCU: 0xF3AE, offset: 0x51D93, size: 0x8, addend: 0x0, symName: __ZNSt3__110unique_ptrINS_11__hash_nodeINS_17__hash_value_typeINS_12basic_stringIcNS_11char_traitsIcEENS_9allocatorIcEEEE4TreeEEPvEENS_26__hash_map_node_destructorINS6_ISC_EEEEEC2B7v160006ILb1EvEEPSC_NS_16__dependent_typeINS_27__unique_ptr_deleter_sfinaeISF_EEXT_EE20__good_rval_ref_typeE, symObjAddr: 0x7D20, symBinAddr: 0x100020CF0, symSize: 0x50 }
  - { offsetInCU: 0xF3FD, offset: 0x51DE2, size: 0x8, addend: 0x0, symName: __ZNSt3__117__compressed_pairIPNS_11__hash_nodeINS_17__hash_value_typeINS_12basic_stringIcNS_11char_traitsIcEENS_9allocatorIcEEEE4TreeEEPvEENS_26__hash_map_node_destructorINS6_ISC_EEEEEC1B7v160006IRSD_SG_EEOT_OT0_, symObjAddr: 0x7D70, symBinAddr: 0x100020D40, symSize: 0x30 }
  - { offsetInCU: 0xF453, offset: 0x51E38, size: 0x8, addend: 0x0, symName: __ZNSt3__117__compressed_pairIPNS_11__hash_nodeINS_17__hash_value_typeINS_12basic_stringIcNS_11char_traitsIcEENS_9allocatorIcEEEE4TreeEEPvEENS_26__hash_map_node_destructorINS6_ISC_EEEEEC2B7v160006IRSD_SG_EEOT_OT0_, symObjAddr: 0x7DA0, symBinAddr: 0x100020D70, symSize: 0x40 }
  - { offsetInCU: 0xF4A9, offset: 0x51E8E, size: 0x8, addend: 0x0, symName: __ZNSt3__122__compressed_pair_elemINS_26__hash_map_node_destructorINS_9allocatorINS_11__hash_nodeINS_17__hash_value_typeINS_12basic_stringIcNS_11char_traitsIcEENS2_IcEEEE4TreeEEPvEEEEEELi1ELb0EEC2B7v160006ISF_vEEOT_, symObjAddr: 0x7DE0, symBinAddr: 0x100020DB0, symSize: 0x30 }
  - { offsetInCU: 0xF4E9, offset: 0x51ECE, size: 0x8, addend: 0x0, symName: __ZNSt3__19allocatorINS_11__hash_nodeINS_17__hash_value_typeINS_12basic_stringIcNS_11char_traitsIcEENS0_IcEEEE4TreeEEPvEEE9constructB7v160006IKS7_JRSE_EEEvPT_DpOT0_, symObjAddr: 0x7E10, symBinAddr: 0x100020DE0, symSize: 0x30 }
  - { offsetInCU: 0xF53D, offset: 0x51F22, size: 0x8, addend: 0x0, symName: __ZNKSt3__117__compressed_pairIPNS_11__hash_nodeINS_17__hash_value_typeINS_12basic_stringIcNS_11char_traitsIcEENS_9allocatorIcEEEE4TreeEEPvEENS_26__hash_map_node_destructorINS6_ISC_EEEEE5firstB7v160006Ev, symObjAddr: 0x7E40, symBinAddr: 0x100020E10, symSize: 0x20 }
  - { offsetInCU: 0xF561, offset: 0x51F46, size: 0x8, addend: 0x0, symName: __ZNSt3__117__compressed_pairIPNS_11__hash_nodeINS_17__hash_value_typeINS_12basic_stringIcNS_11char_traitsIcEENS_9allocatorIcEEEE4TreeEEPvEENS_26__hash_map_node_destructorINS6_ISC_EEEEE6secondB7v160006Ev, symObjAddr: 0x7E60, symBinAddr: 0x100020E30, symSize: 0x20 }
  - { offsetInCU: 0xF585, offset: 0x51F6A, size: 0x8, addend: 0x0, symName: __ZNSt3__122__compressed_pair_elemINS_26__hash_map_node_destructorINS_9allocatorINS_11__hash_nodeINS_17__hash_value_typeINS_12basic_stringIcNS_11char_traitsIcEENS2_IcEEEE4TreeEEPvEEEEEELi1ELb0EE5__getB7v160006Ev, symObjAddr: 0x7E80, symBinAddr: 0x100020E50, symSize: 0x10 }
  - { offsetInCU: 0xF5A9, offset: 0x51F8E, size: 0x8, addend: 0x0, symName: __ZNSt3__19allocatorINS_11__hash_nodeINS_17__hash_value_typeINS_12basic_stringIcNS_11char_traitsIcEENS0_IcEEEE4TreeEEPvEEE9constructB7v160006IS8_JEEEvPT_DpOT0_, symObjAddr: 0x7E90, symBinAddr: 0x100020E60, symSize: 0x20 }
  - { offsetInCU: 0xF5E9, offset: 0x51FCE, size: 0x8, addend: 0x0, symName: __ZNKSt3__122__unordered_map_hasherINS_12basic_stringIcNS_11char_traitsIcEENS_9allocatorIcEEEENS_17__hash_value_typeIS6_4TreeEENS_4hashIS6_EENS_8equal_toIS6_EELb1EEclB7v160006ERKS9_, symObjAddr: 0x7EB0, symBinAddr: 0x100020E80, symSize: 0x40 }
  - { offsetInCU: 0xF61B, offset: 0x52000, size: 0x8, addend: 0x0, symName: __ZNSt3__112__hash_tableINS_17__hash_value_typeINS_12basic_stringIcNS_11char_traitsIcEENS_9allocatorIcEEEE4TreeEENS_22__unordered_map_hasherIS7_S9_NS_4hashIS7_EENS_8equal_toIS7_EELb1EEENS_21__unordered_map_equalIS7_S9_SE_SC_Lb1EEENS5_IS9_EEE28__node_insert_unique_prepareB7v160006EmRS9_, symObjAddr: 0x7EF0, symBinAddr: 0x100020EC0, symSize: 0x2D0 }
  - { offsetInCU: 0xF69C, offset: 0x52081, size: 0x8, addend: 0x0, symName: __ZNSt3__112__hash_tableINS_17__hash_value_typeINS_12basic_stringIcNS_11char_traitsIcEENS_9allocatorIcEEEE4TreeEENS_22__unordered_map_hasherIS7_S9_NS_4hashIS7_EENS_8equal_toIS7_EELb1EEENS_21__unordered_map_equalIS7_S9_SE_SC_Lb1EEENS5_IS9_EEE28__node_insert_unique_performB7v160006EPNS_11__hash_nodeIS9_PvEE, symObjAddr: 0x81C0, symBinAddr: 0x100021190, symSize: 0x140 }
  - { offsetInCU: 0xF700, offset: 0x520E5, size: 0x8, addend: 0x0, symName: __ZNKSt3__121__unordered_map_equalINS_12basic_stringIcNS_11char_traitsIcEENS_9allocatorIcEEEENS_17__hash_value_typeIS6_4TreeEENS_8equal_toIS6_EENS_4hashIS6_EELb1EEclB7v160006ERKS9_SG_, symObjAddr: 0x8300, symBinAddr: 0x1000212D0, symSize: 0x50 }
  - { offsetInCU: 0xF742, offset: 0x52127, size: 0x8, addend: 0x0, symName: __ZNSt3__14pairINS_19__hash_map_iteratorINS_15__hash_iteratorIPNS_11__hash_nodeINS_17__hash_value_typeINS_12basic_stringIcNS_11char_traitsIcEENS_9allocatorIcEEEE4TreeEEPvEEEEEEbEC2B7v160006ISG_bEERKNS0_IT_T0_EE, symObjAddr: 0x8350, symBinAddr: 0x100021320, symSize: 0x50 }
  - { offsetInCU: 0xF78A, offset: 0x5216F, size: 0x8, addend: 0x0, symName: __ZNSt3__117__compressed_pairIPNS_11__hash_nodeINS_17__hash_value_typeINS_12basic_stringIcNS_11char_traitsIcEENS_9allocatorIcEEEE4TreeEEPvEENS_26__hash_map_node_destructorINS6_ISC_EEEEE5firstB7v160006Ev, symObjAddr: 0x83A0, symBinAddr: 0x100021370, symSize: 0x20 }
  - { offsetInCU: 0xF7AE, offset: 0x52193, size: 0x8, addend: 0x0, symName: __ZNSt3__110unique_ptrINS_11__hash_nodeINS_17__hash_value_typeINS_12basic_stringIcNS_11char_traitsIcEENS_9allocatorIcEEEE4TreeEEPvEENS_26__hash_map_node_destructorINS6_ISC_EEEEED2B7v160006Ev, symObjAddr: 0x83C0, symBinAddr: 0x100021390, symSize: 0x20 }
  - { offsetInCU: 0xF7D6, offset: 0x521BB, size: 0x8, addend: 0x0, symName: __ZNSt3__110unique_ptrINS_11__hash_nodeINS_17__hash_value_typeINS_12basic_stringIcNS_11char_traitsIcEENS_9allocatorIcEEEE4TreeEEPvEENS_26__hash_map_node_destructorINS6_ISC_EEEEE5resetB7v160006EPSC_, symObjAddr: 0x83E0, symBinAddr: 0x1000213B0, symSize: 0x70 }
  - { offsetInCU: 0xF818, offset: 0x521FD, size: 0x8, addend: 0x0, symName: __ZNSt3__126__hash_map_node_destructorINS_9allocatorINS_11__hash_nodeINS_17__hash_value_typeINS_12basic_stringIcNS_11char_traitsIcEENS1_IcEEEE4TreeEEPvEEEEEclB7v160006EPSC_, symObjAddr: 0x8450, symBinAddr: 0x100021420, symSize: 0xD0 }
  - { offsetInCU: 0xF84B, offset: 0x52230, size: 0x8, addend: 0x0, symName: __ZNSt3__116allocator_traitsINS_9allocatorINS_11__hash_nodeINS_17__hash_value_typeINS_12basic_stringIcNS_11char_traitsIcEENS1_IcEEEE4TreeEEPvEEEEE7destroyB7v160006IS9_vvEEvRSD_PT_, symObjAddr: 0x8520, symBinAddr: 0x1000214F0, symSize: 0x20 }
  - { offsetInCU: 0xF884, offset: 0x52269, size: 0x8, addend: 0x0, symName: __ZNSt3__116allocator_traitsINS_9allocatorINS_11__hash_nodeINS_17__hash_value_typeINS_12basic_stringIcNS_11char_traitsIcEENS1_IcEEEE4TreeEEPvEEEEE7destroyB7v160006IKS8_vvEEvRSD_PT_, symObjAddr: 0x8540, symBinAddr: 0x100021510, symSize: 0x20 }
  - { offsetInCU: 0xF8BD, offset: 0x522A2, size: 0x8, addend: 0x0, symName: __ZNSt3__116reverse_iteratorINS_11__wrap_iterIPNS_13unordered_mapINS_12basic_stringIcNS_11char_traitsIcEENS_9allocatorIcEEEE4TreeNS_4hashIS8_EENS_8equal_toIS8_EENS6_INS_4pairIKS8_S9_EEEEEEEEEC2B7v160006Ev, symObjAddr: 0x8560, symBinAddr: 0x100021530, symSize: 0x30 }
  - { offsetInCU: 0xF8E5, offset: 0x522CA, size: 0x8, addend: 0x0, symName: __ZNSt3__111__wrap_iterIPNS_13unordered_mapINS_12basic_stringIcNS_11char_traitsIcEENS_9allocatorIcEEEE4TreeNS_4hashIS7_EENS_8equal_toIS7_EENS5_INS_4pairIKS7_S8_EEEEEEEC1B7v160006Ev, symObjAddr: 0x8590, symBinAddr: 0x100021560, symSize: 0x20 }
  - { offsetInCU: 0xF90D, offset: 0x522F2, size: 0x8, addend: 0x0, symName: __ZNSt3__111__wrap_iterIPNS_13unordered_mapINS_12basic_stringIcNS_11char_traitsIcEENS_9allocatorIcEEEE4TreeNS_4hashIS7_EENS_8equal_toIS7_EENS5_INS_4pairIKS7_S8_EEEEEEEC2B7v160006Ev, symObjAddr: 0x85B0, symBinAddr: 0x100021580, symSize: 0x40 }
  - { offsetInCU: 0xF934, offset: 0x52319, size: 0x8, addend: 0x0, symName: __ZNSt3__16vectorINS_13unordered_mapINS_12basic_stringIcNS_11char_traitsIcEENS_9allocatorIcEEEE4TreeNS_4hashIS7_EENS_8equal_toIS7_EENS5_INS_4pairIKS7_S8_EEEEEENS5_ISH_EEE3endB7v160006Ev, symObjAddr: 0x8600, symBinAddr: 0x1000215D0, symSize: 0x30 }
  - { offsetInCU: 0xF95C, offset: 0x52341, size: 0x8, addend: 0x0, symName: __ZNSt3__116reverse_iteratorINS_11__wrap_iterIPNS_13unordered_mapINS_12basic_stringIcNS_11char_traitsIcEENS_9allocatorIcEEEE4TreeNS_4hashIS8_EENS_8equal_toIS8_EENS6_INS_4pairIKS8_S9_EEEEEEEEEC1B7v160006ESK_, symObjAddr: 0x8630, symBinAddr: 0x100021600, symSize: 0x30 }
  - { offsetInCU: 0xF992, offset: 0x52377, size: 0x8, addend: 0x0, symName: __ZNSt3__16vectorINS_13unordered_mapINS_12basic_stringIcNS_11char_traitsIcEENS_9allocatorIcEEEE4TreeNS_4hashIS7_EENS_8equal_toIS7_EENS5_INS_4pairIKS7_S8_EEEEEENS5_ISH_EEE11__make_iterB7v160006EPSH_, symObjAddr: 0x8660, symBinAddr: 0x100021630, symSize: 0x30 }
  - { offsetInCU: 0xF9C5, offset: 0x523AA, size: 0x8, addend: 0x0, symName: __ZNSt3__111__wrap_iterIPNS_13unordered_mapINS_12basic_stringIcNS_11char_traitsIcEENS_9allocatorIcEEEE4TreeNS_4hashIS7_EENS_8equal_toIS7_EENS5_INS_4pairIKS7_S8_EEEEEEEC1B7v160006EPKvSI_, symObjAddr: 0x8690, symBinAddr: 0x100021660, symSize: 0x30 }
  - { offsetInCU: 0xFA09, offset: 0x523EE, size: 0x8, addend: 0x0, symName: __ZNSt3__111__wrap_iterIPNS_13unordered_mapINS_12basic_stringIcNS_11char_traitsIcEENS_9allocatorIcEEEE4TreeNS_4hashIS7_EENS_8equal_toIS7_EENS5_INS_4pairIKS7_S8_EEEEEEEC2B7v160006EPKvSI_, symObjAddr: 0x86C0, symBinAddr: 0x100021690, symSize: 0x20 }
  - { offsetInCU: 0xFA4D, offset: 0x52432, size: 0x8, addend: 0x0, symName: __ZNSt3__116reverse_iteratorINS_11__wrap_iterIPNS_13unordered_mapINS_12basic_stringIcNS_11char_traitsIcEENS_9allocatorIcEEEE4TreeNS_4hashIS8_EENS_8equal_toIS8_EENS6_INS_4pairIKS8_S9_EEEEEEEEEC2B7v160006ESK_, symObjAddr: 0x86E0, symBinAddr: 0x1000216B0, symSize: 0x30 }
  - { offsetInCU: 0xFA82, offset: 0x52467, size: 0x8, addend: 0x0, symName: __ZNSt3__16vectorINS_13unordered_mapINS_12basic_stringIcNS_11char_traitsIcEENS_9allocatorIcEEEE4TreeNS_4hashIS7_EENS_8equal_toIS7_EENS5_INS_4pairIKS7_S8_EEEEEENS5_ISH_EEE5beginB7v160006Ev, symObjAddr: 0x8710, symBinAddr: 0x1000216E0, symSize: 0x30 }
  - { offsetInCU: 0xFAAA, offset: 0x5248F, size: 0x8, addend: 0x0, symName: __ZNKSt3__116reverse_iteratorINS_11__wrap_iterIPNS_13unordered_mapINS_12basic_stringIcNS_11char_traitsIcEENS_9allocatorIcEEEE4TreeNS_4hashIS8_EENS_8equal_toIS8_EENS6_INS_4pairIKS8_S9_EEEEEEEEE4baseB7v160006Ev, symObjAddr: 0x8770, symBinAddr: 0x100021740, symSize: 0x20 }
  - { offsetInCU: 0xFACE, offset: 0x524B3, size: 0x8, addend: 0x0, symName: __ZNKSt3__111__wrap_iterIPNS_13unordered_mapINS_12basic_stringIcNS_11char_traitsIcEENS_9allocatorIcEEEE4TreeNS_4hashIS7_EENS_8equal_toIS7_EENS5_INS_4pairIKS7_S8_EEEEEEE4baseB7v160006Ev, symObjAddr: 0x87D0, symBinAddr: 0x1000217A0, symSize: 0x20 }
  - { offsetInCU: 0xFAF2, offset: 0x524D7, size: 0x8, addend: 0x0, symName: __ZNSt3__111__wrap_iterIPNS_13unordered_mapINS_12basic_stringIcNS_11char_traitsIcEENS_9allocatorIcEEEE4TreeNS_4hashIS7_EENS_8equal_toIS7_EENS5_INS_4pairIKS7_S8_EEEEEEEmmB7v160006Ev, symObjAddr: 0x87F0, symBinAddr: 0x1000217C0, symSize: 0x20 }
  - { offsetInCU: 0xFB16, offset: 0x524FB, size: 0x8, addend: 0x0, symName: __ZNKSt3__116reverse_iteratorINS_11__wrap_iterIPNS_13unordered_mapINS_12basic_stringIcNS_11char_traitsIcEENS_9allocatorIcEEEE4TreeNS_4hashIS8_EENS_8equal_toIS8_EENS6_INS_4pairIKS8_S9_EEEEEEEEEdeB7v160006Ev, symObjAddr: 0x8810, symBinAddr: 0x1000217E0, symSize: 0x30 }
  - { offsetInCU: 0xFB48, offset: 0x5252D, size: 0x8, addend: 0x0, symName: __ZNKSt3__111__wrap_iterIPNS_13unordered_mapINS_12basic_stringIcNS_11char_traitsIcEENS_9allocatorIcEEEE4TreeNS_4hashIS7_EENS_8equal_toIS7_EENS5_INS_4pairIKS7_S8_EEEEEEEdeB7v160006Ev, symObjAddr: 0x8840, symBinAddr: 0x100021810, symSize: 0x20 }
  - { offsetInCU: 0xFB6C, offset: 0x52551, size: 0x8, addend: 0x0, symName: __ZNSt12out_of_rangeC1B7v160006EPKc, symObjAddr: 0x8900, symBinAddr: 0x1000218D0, symSize: 0x30 }
  - { offsetInCU: 0xFBA2, offset: 0x52587, size: 0x8, addend: 0x0, symName: __ZNSt12out_of_rangeC2B7v160006EPKc, symObjAddr: 0x8930, symBinAddr: 0x100021900, symSize: 0x39 }
  - { offsetInCU: 0x4073, offset: 0x567C9, size: 0x8, addend: 0x0, symName: __ZNSt3__112__to_addressB7v160006IPKcEEPT_S4_, symObjAddr: 0x2700, symBinAddr: 0x100022AD0, symSize: 0x10 }
  - { offsetInCU: 0x40A8, offset: 0x567FE, size: 0x8, addend: 0x0, symName: __ZNSt3__119__allocate_at_leastB7v160006INS_9allocatorIPKcEEEENS_19__allocation_resultINS_16allocator_traitsIT_E7pointerEEERS7_m, symObjAddr: 0x2E00, symBinAddr: 0x100023080, symSize: 0x40 }
  - { offsetInCU: 0x40EB, offset: 0x56841, size: 0x8, addend: 0x0, symName: __ZNSt3__142__uninitialized_allocator_move_if_noexceptB7v160006INS_9allocatorIPKcEENS_16reverse_iteratorIPS3_EES7_S3_vEET1_RT_T0_SB_S8_, symObjAddr: 0x3090, symBinAddr: 0x100023310, symSize: 0x120 }
  - { offsetInCU: 0x4167, offset: 0x568BD, size: 0x8, addend: 0x0, symName: __ZNSt3__14swapB7v160006IPPKcEEvRT_S5_, symObjAddr: 0x3200, symBinAddr: 0x100023480, symSize: 0x40 }
  - { offsetInCU: 0x41B8, offset: 0x5690E, size: 0x8, addend: 0x0, symName: __ZNSt3__125__debug_db_invalidate_allB7v160006INS_6vectorIPKcNS_9allocatorIS3_EEEEEEvPT_, symObjAddr: 0x32F0, symBinAddr: 0x100023570, symSize: 0x10 }
  - { offsetInCU: 0x41E9, offset: 0x5693F, size: 0x8, addend: 0x0, symName: __ZNSt3__1neB7v160006IPPKcS3_EEbRKNS_16reverse_iteratorIT_EERKNS4_IT0_EE, symObjAddr: 0x3340, symBinAddr: 0x1000235C0, symSize: 0x40 }
  - { offsetInCU: 0x425C, offset: 0x569B2, size: 0x8, addend: 0x0, symName: __ZNSt3__114__construct_atB7v160006IPKcJS2_EPS2_EEPT_S5_DpOT0_, symObjAddr: 0x3380, symBinAddr: 0x100023600, symSize: 0x30 }
  - { offsetInCU: 0x42CE, offset: 0x56A24, size: 0x8, addend: 0x0, symName: __ZNSt3__112__to_addressB7v160006INS_16reverse_iteratorIPPKcEEvEENS_5decayIDTclsr19__to_address_helperIT_EE6__callclsr3stdE7declvalIRKS7_EEEEE4typeES9_, symObjAddr: 0x33B0, symBinAddr: 0x100023630, symSize: 0x20 }
  - { offsetInCU: 0x4304, offset: 0x56A5A, size: 0x8, addend: 0x0, symName: __ZNSt3__14moveB7v160006INS_16reverse_iteratorIPPKcEES5_EET0_T_S7_S6_, symObjAddr: 0x3420, symBinAddr: 0x1000236A0, symSize: 0x80 }
  - { offsetInCU: 0x4388, offset: 0x56ADE, size: 0x8, addend: 0x0, symName: __ZNSt3__16__moveB7v160006INS_17_ClassicAlgPolicyENS_16reverse_iteratorIPPKcEES6_S6_EENS_4pairIT0_T2_EES8_T1_S9_, symObjAddr: 0x3510, symBinAddr: 0x100023790, symSize: 0x90 }
  - { offsetInCU: 0x43F4, offset: 0x56B4A, size: 0x8, addend: 0x0, symName: __ZNSt3__123__dispatch_copy_or_moveB7v160006INS_17_ClassicAlgPolicyENS_11__move_loopIS1_EENS_14__move_trivialENS_16reverse_iteratorIPPKcEES9_S9_EENS_4pairIT2_T4_EESB_T3_SC_, symObjAddr: 0x35A0, symBinAddr: 0x100023820, symSize: 0xB0 }
  - { offsetInCU: 0x4472, offset: 0x56BC8, size: 0x8, addend: 0x0, symName: __ZNSt3__121__unwrap_and_dispatchB7v160006INS_10__overloadINS_11__move_loopINS_17_ClassicAlgPolicyEEENS_14__move_trivialEEENS_16reverse_iteratorIPPKcEESB_SB_Li0EEENS_4pairIT0_T2_EESD_T1_SE_, symObjAddr: 0x3650, symBinAddr: 0x1000238D0, symSize: 0x210 }
  - { offsetInCU: 0x4501, offset: 0x56C57, size: 0x8, addend: 0x0, symName: __ZNSt3__114__unwrap_rangeB7v160006INS_16reverse_iteratorIPPKcEES5_EENS_4pairIT0_S7_EET_S9_, symObjAddr: 0x3860, symBinAddr: 0x100023AE0, symSize: 0x90 }
  - { offsetInCU: 0x464C, offset: 0x56DA2, size: 0x8, addend: 0x0, symName: __ZNSt3__113__unwrap_iterB7v160006INS_16reverse_iteratorIPPKcEENS_18__unwrap_iter_implIS5_Lb0EEELi0EEEDTclsrT0_8__unwrapclsr3stdE7declvalIT_EEEES9_, symObjAddr: 0x3990, symBinAddr: 0x100023C10, symSize: 0x40 }
  - { offsetInCU: 0x4690, offset: 0x56DE6, size: 0x8, addend: 0x0, symName: __ZNSt3__19make_pairB7v160006INS_16reverse_iteratorIPPKcEES5_EENS_4pairINS_18__unwrap_ref_decayIT_E4typeENS7_IT0_E4typeEEEOS8_OSB_, symObjAddr: 0x39D0, symBinAddr: 0x100023C50, symSize: 0x30 }
  - { offsetInCU: 0x46DF, offset: 0x56E35, size: 0x8, addend: 0x0, symName: __ZNSt3__114__rewrap_rangeB7v160006INS_16reverse_iteratorIPPKcEES5_EET_S6_T0_, symObjAddr: 0x3A00, symBinAddr: 0x100023C80, symSize: 0x60 }
  - { offsetInCU: 0x472B, offset: 0x56E81, size: 0x8, addend: 0x0, symName: __ZNSt3__113__rewrap_iterB7v160006INS_16reverse_iteratorIPPKcEES5_NS_18__unwrap_iter_implIS5_Lb0EEEEET_S8_T0_, symObjAddr: 0x3A60, symBinAddr: 0x100023CE0, symSize: 0x80 }
  - { offsetInCU: 0x4832, offset: 0x56F88, size: 0x8, addend: 0x0, symName: __ZNSt3__118__debug_db_erase_cB7v160006INS_6vectorIPKcNS_9allocatorIS3_EEEEEEvPT_, symObjAddr: 0x4100, symBinAddr: 0x100024210, symSize: 0x10 }
  - { offsetInCU: 0x4863, offset: 0x56FB9, size: 0x8, addend: 0x0, symName: __ZNSt3__119__debug_db_insert_cB7v160006INS_6vectorIPKcNS_9allocatorIS3_EEEEEEvPT_, symObjAddr: 0x4240, symBinAddr: 0x100024350, symSize: 0x10 }
  - { offsetInCU: 0x4B1A, offset: 0x57270, size: 0x8, addend: 0x0, symName: __ZNSt3__16vectorIPKcNS_9allocatorIS2_EEE26__swap_out_circular_bufferERNS_14__split_bufferIS2_RS4_EE, symObjAddr: 0x28C0, symBinAddr: 0x100022C90, symSize: 0x130 }
  - { offsetInCU: 0x68D3, offset: 0x59029, size: 0x8, addend: 0x0, symName: __Z12strBeginWithPKcS0_, symObjAddr: 0x0, symBinAddr: 0x100021940, symSize: 0xB0 }
  - { offsetInCU: 0x690D, offset: 0x59063, size: 0x8, addend: 0x0, symName: __ZN17LexerPreprocessor10preprocessEPcRPNS_8LineNodeES3_PKc, symObjAddr: 0xB0, symBinAddr: 0x1000219F0, symSize: 0x5E0 }
  - { offsetInCU: 0x69F2, offset: 0x59148, size: 0x8, addend: 0x0, symName: __ZNKSt3__112basic_stringIcNS_11char_traitsIcEENS_9allocatorIcEEE5emptyB7v160006Ev, symObjAddr: 0x690, symBinAddr: 0x100021FD0, symSize: 0x30 }
  - { offsetInCU: 0x6A1B, offset: 0x59171, size: 0x8, addend: 0x0, symName: __ZNKSt3__16vectorIPKcNS_9allocatorIS2_EEE4sizeB7v160006Ev, symObjAddr: 0x800, symBinAddr: 0x100022000, symSize: 0x20 }
  - { offsetInCU: 0x6A3E, offset: 0x59194, size: 0x8, addend: 0x0, symName: __ZNSt3__16vectorIPKcNS_9allocatorIS2_EEE9push_backB7v160006ERKS2_, symObjAddr: 0x820, symBinAddr: 0x100022020, symSize: 0x60 }
  - { offsetInCU: 0x6A7A, offset: 0x591D0, size: 0x8, addend: 0x0, symName: __ZN17LexerPreprocessor8LineNodeC1Ev, symObjAddr: 0x880, symBinAddr: 0x100022080, symSize: 0x20 }
  - { offsetInCU: 0x6AA4, offset: 0x591FA, size: 0x8, addend: 0x0, symName: __ZNSt3__112basic_stringIcNS_11char_traitsIcEENS_9allocatorIcEEEaSB7v160006EPKc, symObjAddr: 0x8A0, symBinAddr: 0x1000220A0, symSize: 0x30 }
  - { offsetInCU: 0x6AD6, offset: 0x5922C, size: 0x8, addend: 0x0, symName: __ZN17LexerPreprocessor4loadEPKc, symObjAddr: 0x8D0, symBinAddr: 0x1000220D0, symSize: 0x90 }
  - { offsetInCU: 0x6B1B, offset: 0x59271, size: 0x8, addend: 0x0, symName: __ZNK17LexerPreprocessor5errorEv, symObjAddr: 0x960, symBinAddr: 0x100022160, symSize: 0x20 }
  - { offsetInCU: 0x6B41, offset: 0x59297, size: 0x8, addend: 0x0, symName: __ZN17LexerPreprocessor20getCurrentLineNumberEv, symObjAddr: 0x980, symBinAddr: 0x100022180, symSize: 0x40 }
  - { offsetInCU: 0x6B67, offset: 0x592BD, size: 0x8, addend: 0x0, symName: __ZN17LexerPreprocessor17startFromBeginnigEv, symObjAddr: 0x9C0, symBinAddr: 0x1000221C0, symSize: 0x40 }
  - { offsetInCU: 0x6B8E, offset: 0x592E4, size: 0x8, addend: 0x0, symName: __ZNKSt3__112basic_stringIcNS_11char_traitsIcEENS_9allocatorIcEEE5c_strB7v160006Ev, symObjAddr: 0xA00, symBinAddr: 0x100022200, symSize: 0x20 }
  - { offsetInCU: 0x6BB1, offset: 0x59307, size: 0x8, addend: 0x0, symName: __ZN17LexerPreprocessor12startFromEndEv, symObjAddr: 0xA20, symBinAddr: 0x100022220, symSize: 0x50 }
  - { offsetInCU: 0x6BD8, offset: 0x5932E, size: 0x8, addend: 0x0, symName: __ZNSt3__112basic_stringIcNS_11char_traitsIcEENS_9allocatorIcEEEixB7v160006Em, symObjAddr: 0xA70, symBinAddr: 0x100022270, symSize: 0x30 }
  - { offsetInCU: 0x6C0B, offset: 0x59361, size: 0x8, addend: 0x0, symName: __ZNKSt3__112basic_stringIcNS_11char_traitsIcEENS_9allocatorIcEEE6lengthB7v160006Ev, symObjAddr: 0xAA0, symBinAddr: 0x1000222A0, symSize: 0x20 }
  - { offsetInCU: 0x6C2E, offset: 0x59384, size: 0x8, addend: 0x0, symName: __ZN17LexerPreprocessor8nextLineEv, symObjAddr: 0xAC0, symBinAddr: 0x1000222C0, symSize: 0x70 }
  - { offsetInCU: 0x6C54, offset: 0x593AA, size: 0x8, addend: 0x0, symName: __ZN17LexerPreprocessor8prevLineEv, symObjAddr: 0xB30, symBinAddr: 0x100022330, symSize: 0x80 }
  - { offsetInCU: 0x6C7A, offset: 0x593D0, size: 0x8, addend: 0x0, symName: __ZN17LexerPreprocessor13setCheckPointEv, symObjAddr: 0xBB0, symBinAddr: 0x1000223B0, symSize: 0x20 }
  - { offsetInCU: 0x6CA0, offset: 0x593F6, size: 0x8, addend: 0x0, symName: __ZN17LexerPreprocessor14gotoCheckPointEv, symObjAddr: 0xBD0, symBinAddr: 0x1000223D0, symSize: 0x30 }
  - { offsetInCU: 0x6CC6, offset: 0x5941C, size: 0x8, addend: 0x0, symName: __ZN17LexerPreprocessorppEi, symObjAddr: 0xC00, symBinAddr: 0x100022400, symSize: 0x80 }
  - { offsetInCU: 0x6D14, offset: 0x5946A, size: 0x8, addend: 0x0, symName: __ZN17LexerPreprocessormmEi, symObjAddr: 0xC80, symBinAddr: 0x100022480, symSize: 0x80 }
  - { offsetInCU: 0x6D62, offset: 0x594B8, size: 0x8, addend: 0x0, symName: __ZN17LexerPreprocessordeEv, symObjAddr: 0xD00, symBinAddr: 0x100022500, symSize: 0x40 }
  - { offsetInCU: 0x6D88, offset: 0x594DE, size: 0x8, addend: 0x0, symName: __Z7destroyRPN17LexerPreprocessor8LineNodeE, symObjAddr: 0xD40, symBinAddr: 0x100022540, symSize: 0x90 }
  - { offsetInCU: 0x6DBF, offset: 0x59515, size: 0x8, addend: 0x0, symName: __ZN17LexerPreprocessor8LineNodeD1Ev, symObjAddr: 0xDD0, symBinAddr: 0x1000225D0, symSize: 0x20 }
  - { offsetInCU: 0x6DE8, offset: 0x5953E, size: 0x8, addend: 0x0, symName: __ZN17LexerPreprocessor5clearEv, symObjAddr: 0xDF0, symBinAddr: 0x1000225F0, symSize: 0x40 }
  - { offsetInCU: 0x6E0F, offset: 0x59565, size: 0x8, addend: 0x0, symName: __ZN17LexerPreprocessorD2Ev, symObjAddr: 0xE30, symBinAddr: 0x100022630, symSize: 0xB0 }
  - { offsetInCU: 0x6E39, offset: 0x5958F, size: 0x8, addend: 0x0, symName: __ZNSt3__16vectorIPKcNS_9allocatorIS2_EEED1B7v160006Ev, symObjAddr: 0xEE0, symBinAddr: 0x1000226E0, symSize: 0x20 }
  - { offsetInCU: 0x6E61, offset: 0x595B7, size: 0x8, addend: 0x0, symName: __ZN17LexerPreprocessorD1Ev, symObjAddr: 0xF00, symBinAddr: 0x100022700, symSize: 0x20 }
  - { offsetInCU: 0x6E8B, offset: 0x595E1, size: 0x8, addend: 0x0, symName: __ZN17LexerPreprocessorD0Ev, symObjAddr: 0xF20, symBinAddr: 0x100022720, symSize: 0x50 }
  - { offsetInCU: 0x6EB5, offset: 0x5960B, size: 0x8, addend: 0x0, symName: __ZN17LexerPreprocessorC2Ev, symObjAddr: 0xF70, symBinAddr: 0x100022770, symSize: 0x90 }
  - { offsetInCU: 0x6EDF, offset: 0x59635, size: 0x8, addend: 0x0, symName: __ZNSt3__16vectorIPKcNS_9allocatorIS2_EEEC1B7v160006Ev, symObjAddr: 0x1000, symBinAddr: 0x100022800, symSize: 0x20 }
  - { offsetInCU: 0x6F07, offset: 0x5965D, size: 0x8, addend: 0x0, symName: __ZN17LexerPreprocessorC1Ev, symObjAddr: 0x1040, symBinAddr: 0x100022820, symSize: 0x20 }
  - { offsetInCU: 0x6F31, offset: 0x59687, size: 0x8, addend: 0x0, symName: __ZN17LexerPreprocessor8LineNodeC2Ev, symObjAddr: 0x1060, symBinAddr: 0x100022840, symSize: 0x20 }
  - { offsetInCU: 0x6F5B, offset: 0x596B1, size: 0x8, addend: 0x0, symName: __ZN17LexerPreprocessor8LineNodeD2Ev, symObjAddr: 0x1080, symBinAddr: 0x100022860, symSize: 0x20 }
  - { offsetInCU: 0x6F8A, offset: 0x596E0, size: 0x8, addend: 0x0, symName: __ZNSt3__16vectorIPKcNS_9allocatorIS2_EEE9__end_capB7v160006Ev, symObjAddr: 0x24B0, symBinAddr: 0x100022880, symSize: 0x20 }
  - { offsetInCU: 0x6FAE, offset: 0x59704, size: 0x8, addend: 0x0, symName: __ZNSt3__16vectorIPKcNS_9allocatorIS2_EEE22__construct_one_at_endB7v160006IJRKS2_EEEvDpOT_, symObjAddr: 0x24D0, symBinAddr: 0x1000228A0, symSize: 0xA0 }
  - { offsetInCU: 0x6FFA, offset: 0x59750, size: 0x8, addend: 0x0, symName: __ZNSt3__16vectorIPKcNS_9allocatorIS2_EEE21__push_back_slow_pathIRKS2_EEvOT_, symObjAddr: 0x2570, symBinAddr: 0x100022940, symSize: 0xE0 }
  - { offsetInCU: 0x7058, offset: 0x597AE, size: 0x8, addend: 0x0, symName: __ZNSt3__117__compressed_pairIPPKcNS_9allocatorIS2_EEE5firstB7v160006Ev, symObjAddr: 0x2650, symBinAddr: 0x100022A20, symSize: 0x20 }
  - { offsetInCU: 0x707C, offset: 0x597D2, size: 0x8, addend: 0x0, symName: __ZNSt3__122__compressed_pair_elemIPPKcLi0ELb0EE5__getB7v160006Ev, symObjAddr: 0x2670, symBinAddr: 0x100022A40, symSize: 0x10 }
  - { offsetInCU: 0x70B9, offset: 0x5980F, size: 0x8, addend: 0x0, symName: __ZNSt3__16vectorIPKcNS_9allocatorIS2_EEE21_ConstructTransactionC1B7v160006ERS5_m, symObjAddr: 0x2680, symBinAddr: 0x100022A50, symSize: 0x30 }
  - { offsetInCU: 0x70FF, offset: 0x59855, size: 0x8, addend: 0x0, symName: __ZNSt3__116allocator_traitsINS_9allocatorIPKcEEE9constructB7v160006IS3_JRKS3_EvEEvRS4_PT_DpOT0_, symObjAddr: 0x26B0, symBinAddr: 0x100022A80, symSize: 0x30 }
  - { offsetInCU: 0x7155, offset: 0x598AB, size: 0x8, addend: 0x0, symName: __ZNSt3__16vectorIPKcNS_9allocatorIS2_EEE7__allocB7v160006Ev, symObjAddr: 0x26E0, symBinAddr: 0x100022AB0, symSize: 0x20 }
  - { offsetInCU: 0x7179, offset: 0x598CF, size: 0x8, addend: 0x0, symName: __ZNSt3__16vectorIPKcNS_9allocatorIS2_EEE21_ConstructTransactionD1B7v160006Ev, symObjAddr: 0x2710, symBinAddr: 0x100022AE0, symSize: 0x20 }
  - { offsetInCU: 0x71A1, offset: 0x598F7, size: 0x8, addend: 0x0, symName: __ZNSt3__16vectorIPKcNS_9allocatorIS2_EEE21_ConstructTransactionC2B7v160006ERS5_m, symObjAddr: 0x2730, symBinAddr: 0x100022B00, symSize: 0x40 }
  - { offsetInCU: 0x71E7, offset: 0x5993D, size: 0x8, addend: 0x0, symName: __ZNSt3__19allocatorIPKcE9constructB7v160006IS2_JRKS2_EEEvPT_DpOT0_, symObjAddr: 0x2770, symBinAddr: 0x100022B40, symSize: 0x20 }
  - { offsetInCU: 0x723B, offset: 0x59991, size: 0x8, addend: 0x0, symName: __ZNSt3__117__compressed_pairIPPKcNS_9allocatorIS2_EEE6secondB7v160006Ev, symObjAddr: 0x2790, symBinAddr: 0x100022B60, symSize: 0x20 }
  - { offsetInCU: 0x725F, offset: 0x599B5, size: 0x8, addend: 0x0, symName: __ZNSt3__122__compressed_pair_elemINS_9allocatorIPKcEELi1ELb1EE5__getB7v160006Ev, symObjAddr: 0x27B0, symBinAddr: 0x100022B80, symSize: 0x10 }
  - { offsetInCU: 0x7283, offset: 0x599D9, size: 0x8, addend: 0x0, symName: __ZNSt3__16vectorIPKcNS_9allocatorIS2_EEE21_ConstructTransactionD2B7v160006Ev, symObjAddr: 0x27C0, symBinAddr: 0x100022B90, symSize: 0x20 }
  - { offsetInCU: 0x72AA, offset: 0x59A00, size: 0x8, addend: 0x0, symName: __ZNKSt3__16vectorIPKcNS_9allocatorIS2_EEE11__recommendB7v160006Em, symObjAddr: 0x27E0, symBinAddr: 0x100022BB0, symSize: 0xA0 }
  - { offsetInCU: 0x72FF, offset: 0x59A55, size: 0x8, addend: 0x0, symName: __ZNSt3__114__split_bufferIPKcRNS_9allocatorIS2_EEEC1EmmS5_, symObjAddr: 0x2880, symBinAddr: 0x100022C50, symSize: 0x40 }
  - { offsetInCU: 0x7354, offset: 0x59AAA, size: 0x8, addend: 0x0, symName: __ZNSt3__114__split_bufferIPKcRNS_9allocatorIS2_EEED1Ev, symObjAddr: 0x29F0, symBinAddr: 0x100022DC0, symSize: 0x20 }
  - { offsetInCU: 0x737E, offset: 0x59AD4, size: 0x8, addend: 0x0, symName: __ZNKSt3__16vectorIPKcNS_9allocatorIS2_EEE8max_sizeEv, symObjAddr: 0x2A10, symBinAddr: 0x100022DE0, symSize: 0x70 }
  - { offsetInCU: 0x73A6, offset: 0x59AFC, size: 0x8, addend: 0x0, symName: __ZNKSt3__16vectorIPKcNS_9allocatorIS2_EEE20__throw_length_errorB7v160006Ev, symObjAddr: 0x2A80, symBinAddr: 0x100022E50, symSize: 0x20 }
  - { offsetInCU: 0x73CA, offset: 0x59B20, size: 0x8, addend: 0x0, symName: __ZNKSt3__16vectorIPKcNS_9allocatorIS2_EEE8capacityB7v160006Ev, symObjAddr: 0x2AA0, symBinAddr: 0x100022E70, symSize: 0x30 }
  - { offsetInCU: 0x73F8, offset: 0x59B4E, size: 0x8, addend: 0x0, symName: __ZNSt3__116allocator_traitsINS_9allocatorIPKcEEE8max_sizeB7v160006IS4_vEEmRKS4_, symObjAddr: 0x2B30, symBinAddr: 0x100022EA0, symSize: 0x20 }
  - { offsetInCU: 0x7425, offset: 0x59B7B, size: 0x8, addend: 0x0, symName: __ZNKSt3__16vectorIPKcNS_9allocatorIS2_EEE7__allocB7v160006Ev, symObjAddr: 0x2B50, symBinAddr: 0x100022EC0, symSize: 0x20 }
  - { offsetInCU: 0x7449, offset: 0x59B9F, size: 0x8, addend: 0x0, symName: __ZNKSt3__19allocatorIPKcE8max_sizeB7v160006Ev, symObjAddr: 0x2C00, symBinAddr: 0x100022EE0, symSize: 0x20 }
  - { offsetInCU: 0x746D, offset: 0x59BC3, size: 0x8, addend: 0x0, symName: __ZNKSt3__117__compressed_pairIPPKcNS_9allocatorIS2_EEE6secondB7v160006Ev, symObjAddr: 0x2C20, symBinAddr: 0x100022F00, symSize: 0x20 }
  - { offsetInCU: 0x7491, offset: 0x59BE7, size: 0x8, addend: 0x0, symName: __ZNKSt3__122__compressed_pair_elemINS_9allocatorIPKcEELi1ELb1EE5__getB7v160006Ev, symObjAddr: 0x2C40, symBinAddr: 0x100022F20, symSize: 0x10 }
  - { offsetInCU: 0x74B5, offset: 0x59C0B, size: 0x8, addend: 0x0, symName: __ZNKSt3__16vectorIPKcNS_9allocatorIS2_EEE9__end_capB7v160006Ev, symObjAddr: 0x2C60, symBinAddr: 0x100022F30, symSize: 0x20 }
  - { offsetInCU: 0x74D9, offset: 0x59C2F, size: 0x8, addend: 0x0, symName: __ZNKSt3__117__compressed_pairIPPKcNS_9allocatorIS2_EEE5firstB7v160006Ev, symObjAddr: 0x2C80, symBinAddr: 0x100022F50, symSize: 0x20 }
  - { offsetInCU: 0x74FD, offset: 0x59C53, size: 0x8, addend: 0x0, symName: __ZNKSt3__122__compressed_pair_elemIPPKcLi0ELb0EE5__getB7v160006Ev, symObjAddr: 0x2CA0, symBinAddr: 0x100022F70, symSize: 0x10 }
  - { offsetInCU: 0x7521, offset: 0x59C77, size: 0x8, addend: 0x0, symName: __ZNSt3__114__split_bufferIPKcRNS_9allocatorIS2_EEEC2EmmS5_, symObjAddr: 0x2D00, symBinAddr: 0x100022F80, symSize: 0xD0 }
  - { offsetInCU: 0x7599, offset: 0x59CEF, size: 0x8, addend: 0x0, symName: __ZNSt3__117__compressed_pairIPPKcRNS_9allocatorIS2_EEEC1B7v160006IDnS6_EEOT_OT0_, symObjAddr: 0x2DD0, symBinAddr: 0x100023050, symSize: 0x30 }
  - { offsetInCU: 0x75EF, offset: 0x59D45, size: 0x8, addend: 0x0, symName: __ZNSt3__114__split_bufferIPKcRNS_9allocatorIS2_EEE7__allocB7v160006Ev, symObjAddr: 0x2E40, symBinAddr: 0x1000230C0, symSize: 0x20 }
  - { offsetInCU: 0x7613, offset: 0x59D69, size: 0x8, addend: 0x0, symName: __ZNSt3__114__split_bufferIPKcRNS_9allocatorIS2_EEE9__end_capB7v160006Ev, symObjAddr: 0x2E60, symBinAddr: 0x1000230E0, symSize: 0x20 }
  - { offsetInCU: 0x7637, offset: 0x59D8D, size: 0x8, addend: 0x0, symName: __ZNSt3__117__compressed_pairIPPKcRNS_9allocatorIS2_EEEC2B7v160006IDnS6_EEOT_OT0_, symObjAddr: 0x2E80, symBinAddr: 0x100023100, symSize: 0x40 }
  - { offsetInCU: 0x768D, offset: 0x59DE3, size: 0x8, addend: 0x0, symName: __ZNSt3__122__compressed_pair_elemIPPKcLi0ELb0EEC2B7v160006IDnvEEOT_, symObjAddr: 0x2EC0, symBinAddr: 0x100023140, symSize: 0x20 }
  - { offsetInCU: 0x76CD, offset: 0x59E23, size: 0x8, addend: 0x0, symName: __ZNSt3__122__compressed_pair_elemIRNS_9allocatorIPKcEELi1ELb0EEC2B7v160006IS5_vEEOT_, symObjAddr: 0x2EE0, symBinAddr: 0x100023160, symSize: 0x20 }
  - { offsetInCU: 0x770D, offset: 0x59E63, size: 0x8, addend: 0x0, symName: __ZNSt3__19allocatorIPKcE8allocateB7v160006Em, symObjAddr: 0x2F00, symBinAddr: 0x100023180, symSize: 0x80 }
  - { offsetInCU: 0x773F, offset: 0x59E95, size: 0x8, addend: 0x0, symName: __ZNSt3__117__compressed_pairIPPKcRNS_9allocatorIS2_EEE6secondB7v160006Ev, symObjAddr: 0x2F80, symBinAddr: 0x100023200, symSize: 0x20 }
  - { offsetInCU: 0x7763, offset: 0x59EB9, size: 0x8, addend: 0x0, symName: __ZNSt3__122__compressed_pair_elemIRNS_9allocatorIPKcEELi1ELb0EE5__getB7v160006Ev, symObjAddr: 0x2FA0, symBinAddr: 0x100023220, symSize: 0x20 }
  - { offsetInCU: 0x7787, offset: 0x59EDD, size: 0x8, addend: 0x0, symName: __ZNSt3__117__compressed_pairIPPKcRNS_9allocatorIS2_EEE5firstB7v160006Ev, symObjAddr: 0x2FC0, symBinAddr: 0x100023240, symSize: 0x20 }
  - { offsetInCU: 0x77AB, offset: 0x59F01, size: 0x8, addend: 0x0, symName: __ZNKSt3__16vectorIPKcNS_9allocatorIS2_EEE17__annotate_deleteB7v160006Ev, symObjAddr: 0x2FE0, symBinAddr: 0x100023260, symSize: 0xB0 }
  - { offsetInCU: 0x77CF, offset: 0x59F25, size: 0x8, addend: 0x0, symName: __ZNSt3__116reverse_iteratorIPPKcEC1B7v160006ES3_, symObjAddr: 0x31B0, symBinAddr: 0x100023430, symSize: 0x30 }
  - { offsetInCU: 0x7805, offset: 0x59F5B, size: 0x8, addend: 0x0, symName: __ZNKSt3__116reverse_iteratorIPPKcE4baseB7v160006Ev, symObjAddr: 0x31E0, symBinAddr: 0x100023460, symSize: 0x20 }
  - { offsetInCU: 0x7829, offset: 0x59F7F, size: 0x8, addend: 0x0, symName: __ZNKSt3__16vectorIPKcNS_9allocatorIS2_EEE14__annotate_newB7v160006Em, symObjAddr: 0x3240, symBinAddr: 0x1000234C0, symSize: 0xB0 }
  - { offsetInCU: 0x785C, offset: 0x59FB2, size: 0x8, addend: 0x0, symName: __ZNKSt3__16vectorIPKcNS_9allocatorIS2_EEE31__annotate_contiguous_containerB7v160006EPKvS7_S7_S7_, symObjAddr: 0x3300, symBinAddr: 0x100023580, symSize: 0x20 }
  - { offsetInCU: 0x78AC, offset: 0x5A002, size: 0x8, addend: 0x0, symName: __ZNKSt3__16vectorIPKcNS_9allocatorIS2_EEE4dataB7v160006Ev, symObjAddr: 0x3320, symBinAddr: 0x1000235A0, symSize: 0x20 }
  - { offsetInCU: 0x78D0, offset: 0x5A026, size: 0x8, addend: 0x0, symName: __ZNKSt3__116reverse_iteratorIPPKcEdeB7v160006Ev, symObjAddr: 0x33D0, symBinAddr: 0x100023650, symSize: 0x30 }
  - { offsetInCU: 0x7902, offset: 0x5A058, size: 0x8, addend: 0x0, symName: __ZNSt3__116reverse_iteratorIPPKcEppB7v160006Ev, symObjAddr: 0x3400, symBinAddr: 0x100023680, symSize: 0x20 }
  - { offsetInCU: 0x792B, offset: 0x5A081, size: 0x8, addend: 0x0, symName: __ZNSt3__119__to_address_helperINS_16reverse_iteratorIPPKcEEvE6__callB7v160006ERKS5_, symObjAddr: 0x34A0, symBinAddr: 0x100023720, symSize: 0x50 }
  - { offsetInCU: 0x794D, offset: 0x5A0A3, size: 0x8, addend: 0x0, symName: __ZNKSt3__116reverse_iteratorIPPKcEptB7v160006Ev, symObjAddr: 0x34F0, symBinAddr: 0x100023770, symSize: 0x20 }
  - { offsetInCU: 0x7994, offset: 0x5A0EA, size: 0x8, addend: 0x0, symName: __ZNKSt3__111__move_loopINS_17_ClassicAlgPolicyEEclB7v160006INS_16reverse_iteratorIPPKcEES8_S8_EENS_4pairIT_T1_EESA_T0_SB_, symObjAddr: 0x38F0, symBinAddr: 0x100023B70, symSize: 0xA0 }
  - { offsetInCU: 0x7A02, offset: 0x5A158, size: 0x8, addend: 0x0, symName: __ZNSt3__18_IterOpsINS_17_ClassicAlgPolicyEE11__iter_moveB7v160006IRNS_16reverse_iteratorIPPKcEEEENS_9enable_ifIXsr12is_referenceIDTdeclsr3stdE7declvalIRT_EEEEE5valueEDTclsr3stdE4movedeclsr3stdE7declvalISC_EEEEE4typeEOSB_, symObjAddr: 0x3AE0, symBinAddr: 0x100023D60, symSize: 0x20 }
  - { offsetInCU: 0x7A2D, offset: 0x5A183, size: 0x8, addend: 0x0, symName: __ZNSt3__18_IterOpsINS_17_ClassicAlgPolicyEE25__validate_iter_referenceB7v160006IRNS_16reverse_iteratorIPPKcEEEEvv, symObjAddr: 0x3B00, symBinAddr: 0x100023D80, symSize: 0x10 }
  - { offsetInCU: 0x7A4A, offset: 0x5A1A0, size: 0x8, addend: 0x0, symName: __ZNSt3__118__unwrap_iter_implINS_16reverse_iteratorIPPKcEELb0EE8__unwrapB7v160006ES5_, symObjAddr: 0x3B10, symBinAddr: 0x100023D90, symSize: 0x20 }
  - { offsetInCU: 0x7A6C, offset: 0x5A1C2, size: 0x8, addend: 0x0, symName: __ZNSt3__14pairINS_16reverse_iteratorIPPKcEES5_EC1B7v160006ERKS5_S8_, symObjAddr: 0x3B30, symBinAddr: 0x100023DB0, symSize: 0x30 }
  - { offsetInCU: 0x7AB0, offset: 0x5A206, size: 0x8, addend: 0x0, symName: __ZNSt3__14pairINS_16reverse_iteratorIPPKcEES5_EC2B7v160006ERKS5_S8_, symObjAddr: 0x3B60, symBinAddr: 0x100023DE0, symSize: 0x40 }
  - { offsetInCU: 0x7AF4, offset: 0x5A24A, size: 0x8, addend: 0x0, symName: __ZNSt3__118__unwrap_iter_implINS_16reverse_iteratorIPPKcEELb0EE8__rewrapB7v160006ES5_S5_, symObjAddr: 0x3BA0, symBinAddr: 0x100023E20, symSize: 0x30 }
  - { offsetInCU: 0x7B21, offset: 0x5A277, size: 0x8, addend: 0x0, symName: __ZNSt3__116reverse_iteratorIPPKcEC2B7v160006ES3_, symObjAddr: 0x3BD0, symBinAddr: 0x100023E50, symSize: 0x30 }
  - { offsetInCU: 0x7B57, offset: 0x5A2AD, size: 0x8, addend: 0x0, symName: __ZNSt3__114__split_bufferIPKcRNS_9allocatorIS2_EEED2Ev, symObjAddr: 0x3C00, symBinAddr: 0x100023E80, symSize: 0x60 }
  - { offsetInCU: 0x7B82, offset: 0x5A2D8, size: 0x8, addend: 0x0, symName: __ZNSt3__114__split_bufferIPKcRNS_9allocatorIS2_EEE5clearB7v160006Ev, symObjAddr: 0x3C60, symBinAddr: 0x100023EE0, symSize: 0x20 }
  - { offsetInCU: 0x7BA6, offset: 0x5A2FC, size: 0x8, addend: 0x0, symName: __ZNSt3__116allocator_traitsINS_9allocatorIPKcEEE10deallocateB7v160006ERS4_PS3_m, symObjAddr: 0x3C80, symBinAddr: 0x100023F00, symSize: 0x30 }
  - { offsetInCU: 0x7BE7, offset: 0x5A33D, size: 0x8, addend: 0x0, symName: __ZNKSt3__114__split_bufferIPKcRNS_9allocatorIS2_EEE8capacityB7v160006Ev, symObjAddr: 0x3CB0, symBinAddr: 0x100023F30, symSize: 0x30 }
  - { offsetInCU: 0x7C0B, offset: 0x5A361, size: 0x8, addend: 0x0, symName: __ZNSt3__114__split_bufferIPKcRNS_9allocatorIS2_EEE17__destruct_at_endB7v160006EPS2_, symObjAddr: 0x3CE0, symBinAddr: 0x100023F60, symSize: 0x30 }
  - { offsetInCU: 0x7C3C, offset: 0x5A392, size: 0x8, addend: 0x0, symName: __ZNSt3__114__split_bufferIPKcRNS_9allocatorIS2_EEE17__destruct_at_endB7v160006EPS2_NS_17integral_constantIbLb0EEE, symObjAddr: 0x3D10, symBinAddr: 0x100023F90, symSize: 0x80 }
  - { offsetInCU: 0x7C7D, offset: 0x5A3D3, size: 0x8, addend: 0x0, symName: __ZNSt3__116allocator_traitsINS_9allocatorIPKcEEE7destroyB7v160006IS3_vEEvRS4_PT_, symObjAddr: 0x3D90, symBinAddr: 0x100024010, symSize: 0x30 }
  - { offsetInCU: 0x7CB9, offset: 0x5A40F, size: 0x8, addend: 0x0, symName: __ZNSt3__19allocatorIPKcE7destroyB7v160006EPS2_, symObjAddr: 0x3DC0, symBinAddr: 0x100024040, symSize: 0x10 }
  - { offsetInCU: 0x7CEB, offset: 0x5A441, size: 0x8, addend: 0x0, symName: __ZNSt3__19allocatorIPKcE10deallocateB7v160006EPS2_m, symObjAddr: 0x3DD0, symBinAddr: 0x100024050, symSize: 0x70 }
  - { offsetInCU: 0x7D2B, offset: 0x5A481, size: 0x8, addend: 0x0, symName: __ZNKSt3__114__split_bufferIPKcRNS_9allocatorIS2_EEE9__end_capB7v160006Ev, symObjAddr: 0x3EB0, symBinAddr: 0x1000240C0, symSize: 0x20 }
  - { offsetInCU: 0x7D4F, offset: 0x5A4A5, size: 0x8, addend: 0x0, symName: __ZNKSt3__117__compressed_pairIPPKcRNS_9allocatorIS2_EEE5firstB7v160006Ev, symObjAddr: 0x3ED0, symBinAddr: 0x1000240E0, symSize: 0x20 }
  - { offsetInCU: 0x7D73, offset: 0x5A4C9, size: 0x8, addend: 0x0, symName: __ZNSt3__16vectorIPKcNS_9allocatorIS2_EEED2B7v160006Ev, symObjAddr: 0x3FF0, symBinAddr: 0x100024100, symSize: 0x30 }
  - { offsetInCU: 0x7D9B, offset: 0x5A4F1, size: 0x8, addend: 0x0, symName: __ZNSt3__16vectorIPKcNS_9allocatorIS2_EEE16__destroy_vectorC1ERS5_, symObjAddr: 0x4020, symBinAddr: 0x100024130, symSize: 0x30 }
  - { offsetInCU: 0x7DD2, offset: 0x5A528, size: 0x8, addend: 0x0, symName: __ZNSt3__16vectorIPKcNS_9allocatorIS2_EEE16__destroy_vectorclB7v160006Ev, symObjAddr: 0x4050, symBinAddr: 0x100024160, symSize: 0x90 }
  - { offsetInCU: 0x7DF6, offset: 0x5A54C, size: 0x8, addend: 0x0, symName: __ZNSt3__16vectorIPKcNS_9allocatorIS2_EEE16__destroy_vectorC2ERS5_, symObjAddr: 0x40E0, symBinAddr: 0x1000241F0, symSize: 0x20 }
  - { offsetInCU: 0x7E2D, offset: 0x5A583, size: 0x8, addend: 0x0, symName: __ZNSt3__16vectorIPKcNS_9allocatorIS2_EEE7__clearB7v160006Ev, symObjAddr: 0x4110, symBinAddr: 0x100024220, symSize: 0x20 }
  - { offsetInCU: 0x7E51, offset: 0x5A5A7, size: 0x8, addend: 0x0, symName: __ZNSt3__16vectorIPKcNS_9allocatorIS2_EEE22__base_destruct_at_endB7v160006EPS2_, symObjAddr: 0x4130, symBinAddr: 0x100024240, symSize: 0x90 }
  - { offsetInCU: 0x7E93, offset: 0x5A5E9, size: 0x8, addend: 0x0, symName: __ZNSt3__16vectorIPKcNS_9allocatorIS2_EEEC2B7v160006Ev, symObjAddr: 0x41C0, symBinAddr: 0x1000242D0, symSize: 0x50 }
  - { offsetInCU: 0x7EBB, offset: 0x5A611, size: 0x8, addend: 0x0, symName: __ZNSt3__117__compressed_pairIPPKcNS_9allocatorIS2_EEEC1B7v160006IDnNS_18__default_init_tagEEEOT_OT0_, symObjAddr: 0x4210, symBinAddr: 0x100024320, symSize: 0x30 }
  - { offsetInCU: 0x7F11, offset: 0x5A667, size: 0x8, addend: 0x0, symName: __ZNSt3__117__compressed_pairIPPKcNS_9allocatorIS2_EEEC2B7v160006IDnNS_18__default_init_tagEEEOT_OT0_, symObjAddr: 0x4250, symBinAddr: 0x100024360, symSize: 0x40 }
  - { offsetInCU: 0x7F67, offset: 0x5A6BD, size: 0x8, addend: 0x0, symName: __ZNSt3__122__compressed_pair_elemINS_9allocatorIPKcEELi1ELb1EEC2B7v160006ENS_18__default_init_tagE, symObjAddr: 0x4290, symBinAddr: 0x1000243A0, symSize: 0x20 }
  - { offsetInCU: 0x7F9A, offset: 0x5A6F0, size: 0x8, addend: 0x0, symName: __ZNSt3__19allocatorIPKcEC2B7v160006Ev, symObjAddr: 0x42B0, symBinAddr: 0x1000243C0, symSize: 0x20 }
  - { offsetInCU: 0x7FC2, offset: 0x5A718, size: 0x8, addend: 0x0, symName: __ZNSt3__116__non_trivial_ifILb1ENS_9allocatorIPKcEEEC2B7v160006Ev, symObjAddr: 0x42D0, symBinAddr: 0x1000243E0, symSize: 0xA }
...
